
General Purpose Timer - Output Compare.elf:     file format elf32-littlearm

Sections:
Idx Name          Size      VMA       LMA       File off  Algn
  0 .isr_vector   000000c0  08000000  08000000  00010000  2**0
                  CONTENTS, ALLOC, LOAD, READONLY, DATA
  1 .text         0000220c  080000c0  080000c0  000100c0  2**2
                  CONTENTS, ALLOC, LOAD, READONLY, CODE
  2 .rodata       00000038  080022cc  080022cc  000122cc  2**2
                  CONTENTS, ALLOC, LOAD, READONLY, DATA
  3 .ARM.extab    00000000  08002304  08002304  0002000c  2**0
                  CONTENTS
  4 .ARM          00000000  08002304  08002304  0002000c  2**0
                  CONTENTS
  5 .preinit_array 00000000  08002304  08002304  0002000c  2**0
                  CONTENTS, ALLOC, LOAD, DATA
  6 .init_array   00000004  08002304  08002304  00012304  2**2
                  CONTENTS, ALLOC, LOAD, DATA
  7 .fini_array   00000004  08002308  08002308  00012308  2**2
                  CONTENTS, ALLOC, LOAD, DATA
  8 .data         0000000c  20000000  0800230c  00020000  2**2
                  CONTENTS, ALLOC, LOAD, DATA
  9 .bss          000008b4  2000000c  08002318  0002000c  2**2
                  ALLOC
 10 ._user_heap_stack 00000600  200008c0  08002318  000208c0  2**0
                  ALLOC
 11 .ARM.attributes 00000028  00000000  00000000  0002000c  2**0
                  CONTENTS, READONLY
 12 .debug_info   00006635  00000000  00000000  00020034  2**0
                  CONTENTS, READONLY, DEBUGGING
 13 .debug_abbrev 00001747  00000000  00000000  00026669  2**0
                  CONTENTS, READONLY, DEBUGGING
 14 .debug_aranges 000006a8  00000000  00000000  00027db0  2**3
                  CONTENTS, READONLY, DEBUGGING
 15 .debug_ranges 00000600  00000000  00000000  00028458  2**3
                  CONTENTS, READONLY, DEBUGGING
 16 .debug_macro  0000f80f  00000000  00000000  00028a58  2**0
                  CONTENTS, READONLY, DEBUGGING
 17 .debug_line   00006f12  00000000  00000000  00038267  2**0
                  CONTENTS, READONLY, DEBUGGING
 18 .debug_str    0005c62b  00000000  00000000  0003f179  2**0
                  CONTENTS, READONLY, DEBUGGING
 19 .comment      0000007b  00000000  00000000  0009b7a4  2**0
                  CONTENTS, READONLY
 20 .debug_frame  000015a8  00000000  00000000  0009b820  2**2
                  CONTENTS, READONLY, DEBUGGING

Disassembly of section .text:

080000c0 <__do_global_dtors_aux>:
 80000c0:	b510      	push	{r4, lr}
 80000c2:	4c06      	ldr	r4, [pc, #24]	; (80000dc <__do_global_dtors_aux+0x1c>)
 80000c4:	7823      	ldrb	r3, [r4, #0]
 80000c6:	2b00      	cmp	r3, #0
 80000c8:	d107      	bne.n	80000da <__do_global_dtors_aux+0x1a>
 80000ca:	4b05      	ldr	r3, [pc, #20]	; (80000e0 <__do_global_dtors_aux+0x20>)
 80000cc:	2b00      	cmp	r3, #0
 80000ce:	d002      	beq.n	80000d6 <__do_global_dtors_aux+0x16>
 80000d0:	4804      	ldr	r0, [pc, #16]	; (80000e4 <__do_global_dtors_aux+0x24>)
 80000d2:	e000      	b.n	80000d6 <__do_global_dtors_aux+0x16>
 80000d4:	bf00      	nop
 80000d6:	2301      	movs	r3, #1
 80000d8:	7023      	strb	r3, [r4, #0]
 80000da:	bd10      	pop	{r4, pc}
 80000dc:	2000000c 	.word	0x2000000c
 80000e0:	00000000 	.word	0x00000000
 80000e4:	080022b4 	.word	0x080022b4

080000e8 <frame_dummy>:
 80000e8:	4b04      	ldr	r3, [pc, #16]	; (80000fc <frame_dummy+0x14>)
 80000ea:	b510      	push	{r4, lr}
 80000ec:	2b00      	cmp	r3, #0
 80000ee:	d003      	beq.n	80000f8 <frame_dummy+0x10>
 80000f0:	4903      	ldr	r1, [pc, #12]	; (8000100 <frame_dummy+0x18>)
 80000f2:	4804      	ldr	r0, [pc, #16]	; (8000104 <frame_dummy+0x1c>)
 80000f4:	e000      	b.n	80000f8 <frame_dummy+0x10>
 80000f6:	bf00      	nop
 80000f8:	bd10      	pop	{r4, pc}
 80000fa:	46c0      	nop			; (mov r8, r8)
 80000fc:	00000000 	.word	0x00000000
 8000100:	20000010 	.word	0x20000010
 8000104:	080022b4 	.word	0x080022b4

08000108 <__udivsi3>:
 8000108:	2200      	movs	r2, #0
 800010a:	0843      	lsrs	r3, r0, #1
 800010c:	428b      	cmp	r3, r1
 800010e:	d374      	bcc.n	80001fa <__udivsi3+0xf2>
 8000110:	0903      	lsrs	r3, r0, #4
 8000112:	428b      	cmp	r3, r1
 8000114:	d35f      	bcc.n	80001d6 <__udivsi3+0xce>
 8000116:	0a03      	lsrs	r3, r0, #8
 8000118:	428b      	cmp	r3, r1
 800011a:	d344      	bcc.n	80001a6 <__udivsi3+0x9e>
 800011c:	0b03      	lsrs	r3, r0, #12
 800011e:	428b      	cmp	r3, r1
 8000120:	d328      	bcc.n	8000174 <__udivsi3+0x6c>
 8000122:	0c03      	lsrs	r3, r0, #16
 8000124:	428b      	cmp	r3, r1
 8000126:	d30d      	bcc.n	8000144 <__udivsi3+0x3c>
 8000128:	22ff      	movs	r2, #255	; 0xff
 800012a:	0209      	lsls	r1, r1, #8
 800012c:	ba12      	rev	r2, r2
 800012e:	0c03      	lsrs	r3, r0, #16
 8000130:	428b      	cmp	r3, r1
 8000132:	d302      	bcc.n	800013a <__udivsi3+0x32>
 8000134:	1212      	asrs	r2, r2, #8
 8000136:	0209      	lsls	r1, r1, #8
 8000138:	d065      	beq.n	8000206 <__udivsi3+0xfe>
 800013a:	0b03      	lsrs	r3, r0, #12
 800013c:	428b      	cmp	r3, r1
 800013e:	d319      	bcc.n	8000174 <__udivsi3+0x6c>
 8000140:	e000      	b.n	8000144 <__udivsi3+0x3c>
 8000142:	0a09      	lsrs	r1, r1, #8
 8000144:	0bc3      	lsrs	r3, r0, #15
 8000146:	428b      	cmp	r3, r1
 8000148:	d301      	bcc.n	800014e <__udivsi3+0x46>
 800014a:	03cb      	lsls	r3, r1, #15
 800014c:	1ac0      	subs	r0, r0, r3
 800014e:	4152      	adcs	r2, r2
 8000150:	0b83      	lsrs	r3, r0, #14
 8000152:	428b      	cmp	r3, r1
 8000154:	d301      	bcc.n	800015a <__udivsi3+0x52>
 8000156:	038b      	lsls	r3, r1, #14
 8000158:	1ac0      	subs	r0, r0, r3
 800015a:	4152      	adcs	r2, r2
 800015c:	0b43      	lsrs	r3, r0, #13
 800015e:	428b      	cmp	r3, r1
 8000160:	d301      	bcc.n	8000166 <__udivsi3+0x5e>
 8000162:	034b      	lsls	r3, r1, #13
 8000164:	1ac0      	subs	r0, r0, r3
 8000166:	4152      	adcs	r2, r2
 8000168:	0b03      	lsrs	r3, r0, #12
 800016a:	428b      	cmp	r3, r1
 800016c:	d301      	bcc.n	8000172 <__udivsi3+0x6a>
 800016e:	030b      	lsls	r3, r1, #12
 8000170:	1ac0      	subs	r0, r0, r3
 8000172:	4152      	adcs	r2, r2
 8000174:	0ac3      	lsrs	r3, r0, #11
 8000176:	428b      	cmp	r3, r1
 8000178:	d301      	bcc.n	800017e <__udivsi3+0x76>
 800017a:	02cb      	lsls	r3, r1, #11
 800017c:	1ac0      	subs	r0, r0, r3
 800017e:	4152      	adcs	r2, r2
 8000180:	0a83      	lsrs	r3, r0, #10
 8000182:	428b      	cmp	r3, r1
 8000184:	d301      	bcc.n	800018a <__udivsi3+0x82>
 8000186:	028b      	lsls	r3, r1, #10
 8000188:	1ac0      	subs	r0, r0, r3
 800018a:	4152      	adcs	r2, r2
 800018c:	0a43      	lsrs	r3, r0, #9
 800018e:	428b      	cmp	r3, r1
 8000190:	d301      	bcc.n	8000196 <__udivsi3+0x8e>
 8000192:	024b      	lsls	r3, r1, #9
 8000194:	1ac0      	subs	r0, r0, r3
 8000196:	4152      	adcs	r2, r2
 8000198:	0a03      	lsrs	r3, r0, #8
 800019a:	428b      	cmp	r3, r1
 800019c:	d301      	bcc.n	80001a2 <__udivsi3+0x9a>
 800019e:	020b      	lsls	r3, r1, #8
 80001a0:	1ac0      	subs	r0, r0, r3
 80001a2:	4152      	adcs	r2, r2
 80001a4:	d2cd      	bcs.n	8000142 <__udivsi3+0x3a>
 80001a6:	09c3      	lsrs	r3, r0, #7
 80001a8:	428b      	cmp	r3, r1
 80001aa:	d301      	bcc.n	80001b0 <__udivsi3+0xa8>
 80001ac:	01cb      	lsls	r3, r1, #7
 80001ae:	1ac0      	subs	r0, r0, r3
 80001b0:	4152      	adcs	r2, r2
 80001b2:	0983      	lsrs	r3, r0, #6
 80001b4:	428b      	cmp	r3, r1
 80001b6:	d301      	bcc.n	80001bc <__udivsi3+0xb4>
 80001b8:	018b      	lsls	r3, r1, #6
 80001ba:	1ac0      	subs	r0, r0, r3
 80001bc:	4152      	adcs	r2, r2
 80001be:	0943      	lsrs	r3, r0, #5
 80001c0:	428b      	cmp	r3, r1
 80001c2:	d301      	bcc.n	80001c8 <__udivsi3+0xc0>
 80001c4:	014b      	lsls	r3, r1, #5
 80001c6:	1ac0      	subs	r0, r0, r3
 80001c8:	4152      	adcs	r2, r2
 80001ca:	0903      	lsrs	r3, r0, #4
 80001cc:	428b      	cmp	r3, r1
 80001ce:	d301      	bcc.n	80001d4 <__udivsi3+0xcc>
 80001d0:	010b      	lsls	r3, r1, #4
 80001d2:	1ac0      	subs	r0, r0, r3
 80001d4:	4152      	adcs	r2, r2
 80001d6:	08c3      	lsrs	r3, r0, #3
 80001d8:	428b      	cmp	r3, r1
 80001da:	d301      	bcc.n	80001e0 <__udivsi3+0xd8>
 80001dc:	00cb      	lsls	r3, r1, #3
 80001de:	1ac0      	subs	r0, r0, r3
 80001e0:	4152      	adcs	r2, r2
 80001e2:	0883      	lsrs	r3, r0, #2
 80001e4:	428b      	cmp	r3, r1
 80001e6:	d301      	bcc.n	80001ec <__udivsi3+0xe4>
 80001e8:	008b      	lsls	r3, r1, #2
 80001ea:	1ac0      	subs	r0, r0, r3
 80001ec:	4152      	adcs	r2, r2
 80001ee:	0843      	lsrs	r3, r0, #1
 80001f0:	428b      	cmp	r3, r1
 80001f2:	d301      	bcc.n	80001f8 <__udivsi3+0xf0>
 80001f4:	004b      	lsls	r3, r1, #1
 80001f6:	1ac0      	subs	r0, r0, r3
 80001f8:	4152      	adcs	r2, r2
 80001fa:	1a41      	subs	r1, r0, r1
 80001fc:	d200      	bcs.n	8000200 <__udivsi3+0xf8>
 80001fe:	4601      	mov	r1, r0
 8000200:	4152      	adcs	r2, r2
 8000202:	4610      	mov	r0, r2
 8000204:	4770      	bx	lr
 8000206:	e7ff      	b.n	8000208 <__udivsi3+0x100>
 8000208:	b501      	push	{r0, lr}
 800020a:	2000      	movs	r0, #0
 800020c:	f000 f806 	bl	800021c <__aeabi_idiv0>
 8000210:	bd02      	pop	{r1, pc}
 8000212:	46c0      	nop			; (mov r8, r8)

08000214 <__aeabi_uidivmod>:
 8000214:	2900      	cmp	r1, #0
 8000216:	d0f7      	beq.n	8000208 <__udivsi3+0x100>
 8000218:	e776      	b.n	8000108 <__udivsi3>
 800021a:	4770      	bx	lr

0800021c <__aeabi_idiv0>:
 800021c:	4770      	bx	lr
 800021e:	46c0      	nop			; (mov r8, r8)

08000220 <main>:
/**
  * @brief  The application entry point.
  * @retval int
  */
int main(void)
{
 8000220:	b580      	push	{r7, lr}
 8000222:	af00      	add	r7, sp, #0
  /* USER CODE END 1 */

  /* MCU Configuration--------------------------------------------------------*/

  /* Reset of all peripherals, Initializes the Flash interface and the Systick. */
  HAL_Init();
 8000224:	f000 f9ce 	bl	80005c4 <HAL_Init>
  /* USER CODE BEGIN Init */

  /* USER CODE END Init */

  /* Configure the system clock */
  SystemClock_Config();
 8000228:	f000 f80c 	bl	8000244 <SystemClock_Config>
  /* USER CODE BEGIN SysInit */

  /* USER CODE END SysInit */

  /* Initialize all configured peripherals */
  MX_GPIO_Init();
 800022c:	f000 f86c 	bl	8000308 <MX_GPIO_Init>
  /* USER CODE BEGIN 2 */
	UART_Init();
 8000230:	f001 ff10 	bl	8002054 <UART_Init>

	timer14_init();
 8000234:	f001 fe14 	bl	8001e60 <timer14_init>

	timer14_enable();
 8000238:	f001 fe5c 	bl	8001ef4 <timer14_enable>

	timer14_capture_set_period(100);
 800023c:	2064      	movs	r0, #100	; 0x64
 800023e:	f001 fe67 	bl	8001f10 <timer14_capture_set_period>
  /* USER CODE END 2 */

  /* Infinite loop */
  /* USER CODE BEGIN WHILE */
  while (1)
 8000242:	e7fe      	b.n	8000242 <main+0x22>

08000244 <SystemClock_Config>:
/**
  * @brief System Clock Configuration
  * @retval None
  */
void SystemClock_Config(void)
{
 8000244:	b590      	push	{r4, r7, lr}
 8000246:	b097      	sub	sp, #92	; 0x5c
 8000248:	af00      	add	r7, sp, #0
  RCC_OscInitTypeDef RCC_OscInitStruct = {0};
 800024a:	2428      	movs	r4, #40	; 0x28
 800024c:	193b      	adds	r3, r7, r4
 800024e:	0018      	movs	r0, r3
 8000250:	2330      	movs	r3, #48	; 0x30
 8000252:	001a      	movs	r2, r3
 8000254:	2100      	movs	r1, #0
 8000256:	f002 f825 	bl	80022a4 <memset>
  RCC_ClkInitTypeDef RCC_ClkInitStruct = {0};
 800025a:	2318      	movs	r3, #24
 800025c:	18fb      	adds	r3, r7, r3
 800025e:	0018      	movs	r0, r3
 8000260:	2310      	movs	r3, #16
 8000262:	001a      	movs	r2, r3
 8000264:	2100      	movs	r1, #0
 8000266:	f002 f81d 	bl	80022a4 <memset>
  RCC_PeriphCLKInitTypeDef PeriphClkInit = {0};
 800026a:	1d3b      	adds	r3, r7, #4
 800026c:	0018      	movs	r0, r3
 800026e:	2314      	movs	r3, #20
 8000270:	001a      	movs	r2, r3
 8000272:	2100      	movs	r1, #0
 8000274:	f002 f816 	bl	80022a4 <memset>

  /** Initializes the RCC Oscillators according to the specified parameters
  * in the RCC_OscInitTypeDef structure.
  */
  RCC_OscInitStruct.OscillatorType = RCC_OSCILLATORTYPE_HSI;
 8000278:	0021      	movs	r1, r4
 800027a:	187b      	adds	r3, r7, r1
 800027c:	2202      	movs	r2, #2
 800027e:	601a      	str	r2, [r3, #0]
  RCC_OscInitStruct.HSIState = RCC_HSI_ON;
 8000280:	187b      	adds	r3, r7, r1
 8000282:	2201      	movs	r2, #1
 8000284:	60da      	str	r2, [r3, #12]
  RCC_OscInitStruct.HSICalibrationValue = RCC_HSICALIBRATION_DEFAULT;
 8000286:	187b      	adds	r3, r7, r1
 8000288:	2210      	movs	r2, #16
 800028a:	611a      	str	r2, [r3, #16]
  RCC_OscInitStruct.PLL.PLLState = RCC_PLL_ON;
 800028c:	187b      	adds	r3, r7, r1
 800028e:	2202      	movs	r2, #2
 8000290:	621a      	str	r2, [r3, #32]
  RCC_OscInitStruct.PLL.PLLSource = RCC_PLLSOURCE_HSI;
 8000292:	187b      	adds	r3, r7, r1
 8000294:	2280      	movs	r2, #128	; 0x80
 8000296:	0212      	lsls	r2, r2, #8
 8000298:	625a      	str	r2, [r3, #36]	; 0x24
  RCC_OscInitStruct.PLL.PLLMUL = RCC_PLL_MUL6;
 800029a:	187b      	adds	r3, r7, r1
 800029c:	2280      	movs	r2, #128	; 0x80
 800029e:	0352      	lsls	r2, r2, #13
 80002a0:	629a      	str	r2, [r3, #40]	; 0x28
  RCC_OscInitStruct.PLL.PREDIV = RCC_PREDIV_DIV1;
 80002a2:	187b      	adds	r3, r7, r1
 80002a4:	2200      	movs	r2, #0
 80002a6:	62da      	str	r2, [r3, #44]	; 0x2c
  if (HAL_RCC_OscConfig(&RCC_OscInitStruct) != HAL_OK)
 80002a8:	187b      	adds	r3, r7, r1
 80002aa:	0018      	movs	r0, r3
 80002ac:	f000 fd28 	bl	8000d00 <HAL_RCC_OscConfig>
 80002b0:	1e03      	subs	r3, r0, #0
 80002b2:	d001      	beq.n	80002b8 <SystemClock_Config+0x74>
  {
    Error_Handler();
 80002b4:	f000 f8a8 	bl	8000408 <Error_Handler>
  }
  /** Initializes the CPU, AHB and APB buses clocks
  */
  RCC_ClkInitStruct.ClockType = RCC_CLOCKTYPE_HCLK|RCC_CLOCKTYPE_SYSCLK
 80002b8:	2118      	movs	r1, #24
 80002ba:	187b      	adds	r3, r7, r1
 80002bc:	2207      	movs	r2, #7
 80002be:	601a      	str	r2, [r3, #0]
                              |RCC_CLOCKTYPE_PCLK1;
  RCC_ClkInitStruct.SYSCLKSource = RCC_SYSCLKSOURCE_PLLCLK;
 80002c0:	187b      	adds	r3, r7, r1
 80002c2:	2202      	movs	r2, #2
 80002c4:	605a      	str	r2, [r3, #4]
  RCC_ClkInitStruct.AHBCLKDivider = RCC_SYSCLK_DIV1;
 80002c6:	187b      	adds	r3, r7, r1
 80002c8:	2200      	movs	r2, #0
 80002ca:	609a      	str	r2, [r3, #8]
  RCC_ClkInitStruct.APB1CLKDivider = RCC_HCLK_DIV1;
 80002cc:	187b      	adds	r3, r7, r1
 80002ce:	2200      	movs	r2, #0
 80002d0:	60da      	str	r2, [r3, #12]

  if (HAL_RCC_ClockConfig(&RCC_ClkInitStruct, FLASH_LATENCY_1) != HAL_OK)
 80002d2:	187b      	adds	r3, r7, r1
 80002d4:	2101      	movs	r1, #1
 80002d6:	0018      	movs	r0, r3
 80002d8:	f001 f830 	bl	800133c <HAL_RCC_ClockConfig>
 80002dc:	1e03      	subs	r3, r0, #0
 80002de:	d001      	beq.n	80002e4 <SystemClock_Config+0xa0>
  {
    Error_Handler();
 80002e0:	f000 f892 	bl	8000408 <Error_Handler>
  }
  PeriphClkInit.PeriphClockSelection = RCC_PERIPHCLK_USART1;
 80002e4:	1d3b      	adds	r3, r7, #4
 80002e6:	2201      	movs	r2, #1
 80002e8:	601a      	str	r2, [r3, #0]
  PeriphClkInit.Usart1ClockSelection = RCC_USART1CLKSOURCE_PCLK1;
 80002ea:	1d3b      	adds	r3, r7, #4
 80002ec:	2200      	movs	r2, #0
 80002ee:	609a      	str	r2, [r3, #8]
  if (HAL_RCCEx_PeriphCLKConfig(&PeriphClkInit) != HAL_OK)
 80002f0:	1d3b      	adds	r3, r7, #4
 80002f2:	0018      	movs	r0, r3
 80002f4:	f001 f976 	bl	80015e4 <HAL_RCCEx_PeriphCLKConfig>
 80002f8:	1e03      	subs	r3, r0, #0
 80002fa:	d001      	beq.n	8000300 <SystemClock_Config+0xbc>
  {
    Error_Handler();
 80002fc:	f000 f884 	bl	8000408 <Error_Handler>
  }
}
 8000300:	46c0      	nop			; (mov r8, r8)
 8000302:	46bd      	mov	sp, r7
 8000304:	b017      	add	sp, #92	; 0x5c
 8000306:	bd90      	pop	{r4, r7, pc}

08000308 <MX_GPIO_Init>:
  * @brief GPIO Initialization Function
  * @param None
  * @retval None
  */
static void MX_GPIO_Init(void)
{
 8000308:	b590      	push	{r4, r7, lr}
 800030a:	b089      	sub	sp, #36	; 0x24
 800030c:	af00      	add	r7, sp, #0
  GPIO_InitTypeDef GPIO_InitStruct = {0};
 800030e:	240c      	movs	r4, #12
 8000310:	193b      	adds	r3, r7, r4
 8000312:	0018      	movs	r0, r3
 8000314:	2314      	movs	r3, #20
 8000316:	001a      	movs	r2, r3
 8000318:	2100      	movs	r1, #0
 800031a:	f001 ffc3 	bl	80022a4 <memset>

  /* GPIO Ports Clock Enable */
  __HAL_RCC_GPIOC_CLK_ENABLE();
 800031e:	4b37      	ldr	r3, [pc, #220]	; (80003fc <MX_GPIO_Init+0xf4>)
 8000320:	695a      	ldr	r2, [r3, #20]
 8000322:	4b36      	ldr	r3, [pc, #216]	; (80003fc <MX_GPIO_Init+0xf4>)
 8000324:	2180      	movs	r1, #128	; 0x80
 8000326:	0309      	lsls	r1, r1, #12
 8000328:	430a      	orrs	r2, r1
 800032a:	615a      	str	r2, [r3, #20]
 800032c:	4b33      	ldr	r3, [pc, #204]	; (80003fc <MX_GPIO_Init+0xf4>)
 800032e:	695a      	ldr	r2, [r3, #20]
 8000330:	2380      	movs	r3, #128	; 0x80
 8000332:	031b      	lsls	r3, r3, #12
 8000334:	4013      	ands	r3, r2
 8000336:	60bb      	str	r3, [r7, #8]
 8000338:	68bb      	ldr	r3, [r7, #8]
  __HAL_RCC_GPIOF_CLK_ENABLE();
 800033a:	4b30      	ldr	r3, [pc, #192]	; (80003fc <MX_GPIO_Init+0xf4>)
 800033c:	695a      	ldr	r2, [r3, #20]
 800033e:	4b2f      	ldr	r3, [pc, #188]	; (80003fc <MX_GPIO_Init+0xf4>)
 8000340:	2180      	movs	r1, #128	; 0x80
 8000342:	03c9      	lsls	r1, r1, #15
 8000344:	430a      	orrs	r2, r1
 8000346:	615a      	str	r2, [r3, #20]
 8000348:	4b2c      	ldr	r3, [pc, #176]	; (80003fc <MX_GPIO_Init+0xf4>)
 800034a:	695a      	ldr	r2, [r3, #20]
 800034c:	2380      	movs	r3, #128	; 0x80
 800034e:	03db      	lsls	r3, r3, #15
 8000350:	4013      	ands	r3, r2
 8000352:	607b      	str	r3, [r7, #4]
 8000354:	687b      	ldr	r3, [r7, #4]
  __HAL_RCC_GPIOA_CLK_ENABLE();
 8000356:	4b29      	ldr	r3, [pc, #164]	; (80003fc <MX_GPIO_Init+0xf4>)
 8000358:	695a      	ldr	r2, [r3, #20]
 800035a:	4b28      	ldr	r3, [pc, #160]	; (80003fc <MX_GPIO_Init+0xf4>)
 800035c:	2180      	movs	r1, #128	; 0x80
 800035e:	0289      	lsls	r1, r1, #10
 8000360:	430a      	orrs	r2, r1
 8000362:	615a      	str	r2, [r3, #20]
 8000364:	4b25      	ldr	r3, [pc, #148]	; (80003fc <MX_GPIO_Init+0xf4>)
 8000366:	695a      	ldr	r2, [r3, #20]
 8000368:	2380      	movs	r3, #128	; 0x80
 800036a:	029b      	lsls	r3, r3, #10
 800036c:	4013      	ands	r3, r2
 800036e:	603b      	str	r3, [r7, #0]
 8000370:	683b      	ldr	r3, [r7, #0]

  /*Configure GPIO pin Output Level */
  HAL_GPIO_WritePin(LD2_GPIO_Port, LD2_Pin, GPIO_PIN_RESET);
 8000372:	2390      	movs	r3, #144	; 0x90
 8000374:	05db      	lsls	r3, r3, #23
 8000376:	2200      	movs	r2, #0
 8000378:	2120      	movs	r1, #32
 800037a:	0018      	movs	r0, r3
 800037c:	f000 fca2 	bl	8000cc4 <HAL_GPIO_WritePin>

  /*Configure GPIO pin : B1_Pin */
  GPIO_InitStruct.Pin = B1_Pin;
 8000380:	193b      	adds	r3, r7, r4
 8000382:	2280      	movs	r2, #128	; 0x80
 8000384:	0192      	lsls	r2, r2, #6
 8000386:	601a      	str	r2, [r3, #0]
  GPIO_InitStruct.Mode = GPIO_MODE_IT_FALLING;
 8000388:	193b      	adds	r3, r7, r4
 800038a:	4a1d      	ldr	r2, [pc, #116]	; (8000400 <MX_GPIO_Init+0xf8>)
 800038c:	605a      	str	r2, [r3, #4]
  GPIO_InitStruct.Pull = GPIO_NOPULL;
 800038e:	193b      	adds	r3, r7, r4
 8000390:	2200      	movs	r2, #0
 8000392:	609a      	str	r2, [r3, #8]
  HAL_GPIO_Init(B1_GPIO_Port, &GPIO_InitStruct);
 8000394:	193b      	adds	r3, r7, r4
 8000396:	4a1b      	ldr	r2, [pc, #108]	; (8000404 <MX_GPIO_Init+0xfc>)
 8000398:	0019      	movs	r1, r3
 800039a:	0010      	movs	r0, r2
 800039c:	f000 fa54 	bl	8000848 <HAL_GPIO_Init>

  /*Configure GPIO pins : USART_TX_Pin USART_RX_Pin */
  GPIO_InitStruct.Pin = USART_TX_Pin|USART_RX_Pin;
 80003a0:	193b      	adds	r3, r7, r4
 80003a2:	220c      	movs	r2, #12
 80003a4:	601a      	str	r2, [r3, #0]
  GPIO_InitStruct.Mode = GPIO_MODE_AF_PP;
 80003a6:	193b      	adds	r3, r7, r4
 80003a8:	2202      	movs	r2, #2
 80003aa:	605a      	str	r2, [r3, #4]
  GPIO_InitStruct.Pull = GPIO_NOPULL;
 80003ac:	193b      	adds	r3, r7, r4
 80003ae:	2200      	movs	r2, #0
 80003b0:	609a      	str	r2, [r3, #8]
  GPIO_InitStruct.Speed = GPIO_SPEED_FREQ_HIGH;
 80003b2:	193b      	adds	r3, r7, r4
 80003b4:	2203      	movs	r2, #3
 80003b6:	60da      	str	r2, [r3, #12]
  GPIO_InitStruct.Alternate = GPIO_AF1_USART2;
 80003b8:	193b      	adds	r3, r7, r4
 80003ba:	2201      	movs	r2, #1
 80003bc:	611a      	str	r2, [r3, #16]
  HAL_GPIO_Init(GPIOA, &GPIO_InitStruct);
 80003be:	193a      	adds	r2, r7, r4
 80003c0:	2390      	movs	r3, #144	; 0x90
 80003c2:	05db      	lsls	r3, r3, #23
 80003c4:	0011      	movs	r1, r2
 80003c6:	0018      	movs	r0, r3
 80003c8:	f000 fa3e 	bl	8000848 <HAL_GPIO_Init>

  /*Configure GPIO pin : LD2_Pin */
  GPIO_InitStruct.Pin = LD2_Pin;
 80003cc:	0021      	movs	r1, r4
 80003ce:	187b      	adds	r3, r7, r1
 80003d0:	2220      	movs	r2, #32
 80003d2:	601a      	str	r2, [r3, #0]
  GPIO_InitStruct.Mode = GPIO_MODE_OUTPUT_PP;
 80003d4:	187b      	adds	r3, r7, r1
 80003d6:	2201      	movs	r2, #1
 80003d8:	605a      	str	r2, [r3, #4]
  GPIO_InitStruct.Pull = GPIO_NOPULL;
 80003da:	187b      	adds	r3, r7, r1
 80003dc:	2200      	movs	r2, #0
 80003de:	609a      	str	r2, [r3, #8]
  GPIO_InitStruct.Speed = GPIO_SPEED_FREQ_LOW;
 80003e0:	187b      	adds	r3, r7, r1
 80003e2:	2200      	movs	r2, #0
 80003e4:	60da      	str	r2, [r3, #12]
  HAL_GPIO_Init(LD2_GPIO_Port, &GPIO_InitStruct);
 80003e6:	187a      	adds	r2, r7, r1
 80003e8:	2390      	movs	r3, #144	; 0x90
 80003ea:	05db      	lsls	r3, r3, #23
 80003ec:	0011      	movs	r1, r2
 80003ee:	0018      	movs	r0, r3
 80003f0:	f000 fa2a 	bl	8000848 <HAL_GPIO_Init>

}
 80003f4:	46c0      	nop			; (mov r8, r8)
 80003f6:	46bd      	mov	sp, r7
 80003f8:	b009      	add	sp, #36	; 0x24
 80003fa:	bd90      	pop	{r4, r7, pc}
 80003fc:	40021000 	.word	0x40021000
 8000400:	10210000 	.word	0x10210000
 8000404:	48000800 	.word	0x48000800

08000408 <Error_Handler>:
/**
  * @brief  This function is executed in case of error occurrence.
  * @retval None
  */
void Error_Handler(void)
{
 8000408:	b580      	push	{r7, lr}
 800040a:	af00      	add	r7, sp, #0
  \details Disables IRQ interrupts by setting the I-bit in the CPSR.
           Can only be executed in Privileged modes.
 */
__STATIC_FORCEINLINE void __disable_irq(void)
{
  __ASM volatile ("cpsid i" : : : "memory");
 800040c:	b672      	cpsid	i
  /* USER CODE BEGIN Error_Handler_Debug */
  /* User can add his own implementation to report the HAL error return state */
  __disable_irq();
  while (1)
 800040e:	e7fe      	b.n	800040e <Error_Handler+0x6>

08000410 <HAL_MspInit>:
/* USER CODE END 0 */
/**
  * Initializes the Global MSP.
  */
void HAL_MspInit(void)
{
 8000410:	b580      	push	{r7, lr}
 8000412:	b082      	sub	sp, #8
 8000414:	af00      	add	r7, sp, #0
  /* USER CODE BEGIN MspInit 0 */

  /* USER CODE END MspInit 0 */

  __HAL_RCC_SYSCFG_CLK_ENABLE();
 8000416:	4b0f      	ldr	r3, [pc, #60]	; (8000454 <HAL_MspInit+0x44>)
 8000418:	699a      	ldr	r2, [r3, #24]
 800041a:	4b0e      	ldr	r3, [pc, #56]	; (8000454 <HAL_MspInit+0x44>)
 800041c:	2101      	movs	r1, #1
 800041e:	430a      	orrs	r2, r1
 8000420:	619a      	str	r2, [r3, #24]
 8000422:	4b0c      	ldr	r3, [pc, #48]	; (8000454 <HAL_MspInit+0x44>)
 8000424:	699b      	ldr	r3, [r3, #24]
 8000426:	2201      	movs	r2, #1
 8000428:	4013      	ands	r3, r2
 800042a:	607b      	str	r3, [r7, #4]
 800042c:	687b      	ldr	r3, [r7, #4]
  __HAL_RCC_PWR_CLK_ENABLE();
 800042e:	4b09      	ldr	r3, [pc, #36]	; (8000454 <HAL_MspInit+0x44>)
 8000430:	69da      	ldr	r2, [r3, #28]
 8000432:	4b08      	ldr	r3, [pc, #32]	; (8000454 <HAL_MspInit+0x44>)
 8000434:	2180      	movs	r1, #128	; 0x80
 8000436:	0549      	lsls	r1, r1, #21
 8000438:	430a      	orrs	r2, r1
 800043a:	61da      	str	r2, [r3, #28]
 800043c:	4b05      	ldr	r3, [pc, #20]	; (8000454 <HAL_MspInit+0x44>)
 800043e:	69da      	ldr	r2, [r3, #28]
 8000440:	2380      	movs	r3, #128	; 0x80
 8000442:	055b      	lsls	r3, r3, #21
 8000444:	4013      	ands	r3, r2
 8000446:	603b      	str	r3, [r7, #0]
 8000448:	683b      	ldr	r3, [r7, #0]
  /* System interrupt init*/

  /* USER CODE BEGIN MspInit 1 */

  /* USER CODE END MspInit 1 */
}
 800044a:	46c0      	nop			; (mov r8, r8)
 800044c:	46bd      	mov	sp, r7
 800044e:	b002      	add	sp, #8
 8000450:	bd80      	pop	{r7, pc}
 8000452:	46c0      	nop			; (mov r8, r8)
 8000454:	40021000 	.word	0x40021000

08000458 <HAL_UART_MspInit>:
* This function configures the hardware resources used in this example
* @param huart: UART handle pointer
* @retval None
*/
void HAL_UART_MspInit(UART_HandleTypeDef* huart)
{
 8000458:	b580      	push	{r7, lr}
 800045a:	b08a      	sub	sp, #40	; 0x28
 800045c:	af00      	add	r7, sp, #0
 800045e:	6078      	str	r0, [r7, #4]
  GPIO_InitTypeDef GPIO_InitStruct = {0};
 8000460:	2314      	movs	r3, #20
 8000462:	18fb      	adds	r3, r7, r3
 8000464:	0018      	movs	r0, r3
 8000466:	2314      	movs	r3, #20
 8000468:	001a      	movs	r2, r3
 800046a:	2100      	movs	r1, #0
 800046c:	f001 ff1a 	bl	80022a4 <memset>
  if(huart->Instance==USART1)
 8000470:	687b      	ldr	r3, [r7, #4]
 8000472:	681b      	ldr	r3, [r3, #0]
 8000474:	4a1d      	ldr	r2, [pc, #116]	; (80004ec <HAL_UART_MspInit+0x94>)
 8000476:	4293      	cmp	r3, r2
 8000478:	d133      	bne.n	80004e2 <HAL_UART_MspInit+0x8a>
  {
  /* USER CODE BEGIN USART1_MspInit 0 */

  /* USER CODE END USART1_MspInit 0 */
    /* Peripheral clock enable */
    __HAL_RCC_USART1_CLK_ENABLE();
 800047a:	4b1d      	ldr	r3, [pc, #116]	; (80004f0 <HAL_UART_MspInit+0x98>)
 800047c:	699a      	ldr	r2, [r3, #24]
 800047e:	4b1c      	ldr	r3, [pc, #112]	; (80004f0 <HAL_UART_MspInit+0x98>)
 8000480:	2180      	movs	r1, #128	; 0x80
 8000482:	01c9      	lsls	r1, r1, #7
 8000484:	430a      	orrs	r2, r1
 8000486:	619a      	str	r2, [r3, #24]
 8000488:	4b19      	ldr	r3, [pc, #100]	; (80004f0 <HAL_UART_MspInit+0x98>)
 800048a:	699a      	ldr	r2, [r3, #24]
 800048c:	2380      	movs	r3, #128	; 0x80
 800048e:	01db      	lsls	r3, r3, #7
 8000490:	4013      	ands	r3, r2
 8000492:	613b      	str	r3, [r7, #16]
 8000494:	693b      	ldr	r3, [r7, #16]

    __HAL_RCC_GPIOA_CLK_ENABLE();
 8000496:	4b16      	ldr	r3, [pc, #88]	; (80004f0 <HAL_UART_MspInit+0x98>)
 8000498:	695a      	ldr	r2, [r3, #20]
 800049a:	4b15      	ldr	r3, [pc, #84]	; (80004f0 <HAL_UART_MspInit+0x98>)
 800049c:	2180      	movs	r1, #128	; 0x80
 800049e:	0289      	lsls	r1, r1, #10
 80004a0:	430a      	orrs	r2, r1
 80004a2:	615a      	str	r2, [r3, #20]
 80004a4:	4b12      	ldr	r3, [pc, #72]	; (80004f0 <HAL_UART_MspInit+0x98>)
 80004a6:	695a      	ldr	r2, [r3, #20]
 80004a8:	2380      	movs	r3, #128	; 0x80
 80004aa:	029b      	lsls	r3, r3, #10
 80004ac:	4013      	ands	r3, r2
 80004ae:	60fb      	str	r3, [r7, #12]
 80004b0:	68fb      	ldr	r3, [r7, #12]
    /**USART1 GPIO Configuration
    PA9     ------> USART1_TX
    PA10     ------> USART1_RX
    */
    GPIO_InitStruct.Pin = GPIO_PIN_9|GPIO_PIN_10;
 80004b2:	2114      	movs	r1, #20
 80004b4:	187b      	adds	r3, r7, r1
 80004b6:	22c0      	movs	r2, #192	; 0xc0
 80004b8:	00d2      	lsls	r2, r2, #3
 80004ba:	601a      	str	r2, [r3, #0]
    GPIO_InitStruct.Mode = GPIO_MODE_AF_PP;
 80004bc:	187b      	adds	r3, r7, r1
 80004be:	2202      	movs	r2, #2
 80004c0:	605a      	str	r2, [r3, #4]
    GPIO_InitStruct.Pull = GPIO_NOPULL;
 80004c2:	187b      	adds	r3, r7, r1
 80004c4:	2200      	movs	r2, #0
 80004c6:	609a      	str	r2, [r3, #8]
    GPIO_InitStruct.Speed = GPIO_SPEED_FREQ_HIGH;
 80004c8:	187b      	adds	r3, r7, r1
 80004ca:	2203      	movs	r2, #3
 80004cc:	60da      	str	r2, [r3, #12]
    GPIO_InitStruct.Alternate = GPIO_AF1_USART1;
 80004ce:	187b      	adds	r3, r7, r1
 80004d0:	2201      	movs	r2, #1
 80004d2:	611a      	str	r2, [r3, #16]
    HAL_GPIO_Init(GPIOA, &GPIO_InitStruct);
 80004d4:	187a      	adds	r2, r7, r1
 80004d6:	2390      	movs	r3, #144	; 0x90
 80004d8:	05db      	lsls	r3, r3, #23
 80004da:	0011      	movs	r1, r2
 80004dc:	0018      	movs	r0, r3
 80004de:	f000 f9b3 	bl	8000848 <HAL_GPIO_Init>
  /* USER CODE BEGIN USART1_MspInit 1 */

  /* USER CODE END USART1_MspInit 1 */
  }

}
 80004e2:	46c0      	nop			; (mov r8, r8)
 80004e4:	46bd      	mov	sp, r7
 80004e6:	b00a      	add	sp, #40	; 0x28
 80004e8:	bd80      	pop	{r7, pc}
 80004ea:	46c0      	nop			; (mov r8, r8)
 80004ec:	40013800 	.word	0x40013800
 80004f0:	40021000 	.word	0x40021000

080004f4 <HAL_UART_MspDeInit>:
* This function freeze the hardware resources used in this example
* @param huart: UART handle pointer
* @retval None
*/
void HAL_UART_MspDeInit(UART_HandleTypeDef* huart)
{
 80004f4:	b580      	push	{r7, lr}
 80004f6:	b082      	sub	sp, #8
 80004f8:	af00      	add	r7, sp, #0
 80004fa:	6078      	str	r0, [r7, #4]
  if(huart->Instance==USART1)
 80004fc:	687b      	ldr	r3, [r7, #4]
 80004fe:	681b      	ldr	r3, [r3, #0]
 8000500:	4a0a      	ldr	r2, [pc, #40]	; (800052c <HAL_UART_MspDeInit+0x38>)
 8000502:	4293      	cmp	r3, r2
 8000504:	d10d      	bne.n	8000522 <HAL_UART_MspDeInit+0x2e>
  {
  /* USER CODE BEGIN USART1_MspDeInit 0 */

  /* USER CODE END USART1_MspDeInit 0 */
    /* Peripheral clock disable */
    __HAL_RCC_USART1_CLK_DISABLE();
 8000506:	4b0a      	ldr	r3, [pc, #40]	; (8000530 <HAL_UART_MspDeInit+0x3c>)
 8000508:	699a      	ldr	r2, [r3, #24]
 800050a:	4b09      	ldr	r3, [pc, #36]	; (8000530 <HAL_UART_MspDeInit+0x3c>)
 800050c:	4909      	ldr	r1, [pc, #36]	; (8000534 <HAL_UART_MspDeInit+0x40>)
 800050e:	400a      	ands	r2, r1
 8000510:	619a      	str	r2, [r3, #24]

    /**USART1 GPIO Configuration
    PA9     ------> USART1_TX
    PA10     ------> USART1_RX
    */
    HAL_GPIO_DeInit(GPIOA, GPIO_PIN_9|GPIO_PIN_10);
 8000512:	23c0      	movs	r3, #192	; 0xc0
 8000514:	00da      	lsls	r2, r3, #3
 8000516:	2390      	movs	r3, #144	; 0x90
 8000518:	05db      	lsls	r3, r3, #23
 800051a:	0011      	movs	r1, r2
 800051c:	0018      	movs	r0, r3
 800051e:	f000 fb03 	bl	8000b28 <HAL_GPIO_DeInit>
  /* USER CODE BEGIN USART1_MspDeInit 1 */

  /* USER CODE END USART1_MspDeInit 1 */
  }

}
 8000522:	46c0      	nop			; (mov r8, r8)
 8000524:	46bd      	mov	sp, r7
 8000526:	b002      	add	sp, #8
 8000528:	bd80      	pop	{r7, pc}
 800052a:	46c0      	nop			; (mov r8, r8)
 800052c:	40013800 	.word	0x40013800
 8000530:	40021000 	.word	0x40021000
 8000534:	ffffbfff 	.word	0xffffbfff

08000538 <NMI_Handler>:
/******************************************************************************/
/**
  * @brief This function handles Non maskable interrupt.
  */
void NMI_Handler(void)
{
 8000538:	b580      	push	{r7, lr}
 800053a:	af00      	add	r7, sp, #0
  /* USER CODE BEGIN NonMaskableInt_IRQn 0 */

  /* USER CODE END NonMaskableInt_IRQn 0 */
  /* USER CODE BEGIN NonMaskableInt_IRQn 1 */
  while (1)
 800053c:	e7fe      	b.n	800053c <NMI_Handler+0x4>

0800053e <HardFault_Handler>:

/**
  * @brief This function handles Hard fault interrupt.
  */
void HardFault_Handler(void)
{
 800053e:	b580      	push	{r7, lr}
 8000540:	af00      	add	r7, sp, #0
  /* USER CODE BEGIN HardFault_IRQn 0 */

  /* USER CODE END HardFault_IRQn 0 */
  while (1)
 8000542:	e7fe      	b.n	8000542 <HardFault_Handler+0x4>

08000544 <SVC_Handler>:

/**
  * @brief This function handles System service call via SWI instruction.
  */
void SVC_Handler(void)
{
 8000544:	b580      	push	{r7, lr}
 8000546:	af00      	add	r7, sp, #0

  /* USER CODE END SVC_IRQn 0 */
  /* USER CODE BEGIN SVC_IRQn 1 */

  /* USER CODE END SVC_IRQn 1 */
}
 8000548:	46c0      	nop			; (mov r8, r8)
 800054a:	46bd      	mov	sp, r7
 800054c:	bd80      	pop	{r7, pc}

0800054e <PendSV_Handler>:

/**
  * @brief This function handles Pendable request for system service.
  */
void PendSV_Handler(void)
{
 800054e:	b580      	push	{r7, lr}
 8000550:	af00      	add	r7, sp, #0

  /* USER CODE END PendSV_IRQn 0 */
  /* USER CODE BEGIN PendSV_IRQn 1 */

  /* USER CODE END PendSV_IRQn 1 */
}
 8000552:	46c0      	nop			; (mov r8, r8)
 8000554:	46bd      	mov	sp, r7
 8000556:	bd80      	pop	{r7, pc}

08000558 <SysTick_Handler>:

/**
  * @brief This function handles System tick timer.
  */
void SysTick_Handler(void)
{
 8000558:	b580      	push	{r7, lr}
 800055a:	af00      	add	r7, sp, #0
  /* USER CODE BEGIN SysTick_IRQn 0 */

  /* USER CODE END SysTick_IRQn 0 */
  HAL_IncTick();
 800055c:	f000 f87a 	bl	8000654 <HAL_IncTick>
  /* USER CODE BEGIN SysTick_IRQn 1 */

  /* USER CODE END SysTick_IRQn 1 */
}
 8000560:	46c0      	nop			; (mov r8, r8)
 8000562:	46bd      	mov	sp, r7
 8000564:	bd80      	pop	{r7, pc}

08000566 <SystemInit>:
  * @brief  Setup the microcontroller system
  * @param  None
  * @retval None
  */
void SystemInit(void)
{
 8000566:	b580      	push	{r7, lr}
 8000568:	af00      	add	r7, sp, #0
                         before branch to main program. This call is made inside
                         the "startup_stm32f0xx.s" file.
                         User can setups the default system clock (System clock source, PLL Multiplier
                         and Divider factors, AHB/APBx prescalers and Flash settings).
   */
}
 800056a:	46c0      	nop			; (mov r8, r8)
 800056c:	46bd      	mov	sp, r7
 800056e:	bd80      	pop	{r7, pc}

08000570 <Reset_Handler>:

  .section .text.Reset_Handler
  .weak Reset_Handler
  .type Reset_Handler, %function
Reset_Handler:
  ldr   r0, =_estack
 8000570:	480d      	ldr	r0, [pc, #52]	; (80005a8 <LoopForever+0x2>)
  mov   sp, r0          /* set stack pointer */
 8000572:	4685      	mov	sp, r0

/* Copy the data segment initializers from flash to SRAM */
  ldr r0, =_sdata
 8000574:	480d      	ldr	r0, [pc, #52]	; (80005ac <LoopForever+0x6>)
  ldr r1, =_edata
 8000576:	490e      	ldr	r1, [pc, #56]	; (80005b0 <LoopForever+0xa>)
  ldr r2, =_sidata
 8000578:	4a0e      	ldr	r2, [pc, #56]	; (80005b4 <LoopForever+0xe>)
  movs r3, #0
 800057a:	2300      	movs	r3, #0
  b LoopCopyDataInit
 800057c:	e002      	b.n	8000584 <LoopCopyDataInit>

0800057e <CopyDataInit>:

CopyDataInit:
  ldr r4, [r2, r3]
 800057e:	58d4      	ldr	r4, [r2, r3]
  str r4, [r0, r3]
 8000580:	50c4      	str	r4, [r0, r3]
  adds r3, r3, #4
 8000582:	3304      	adds	r3, #4

08000584 <LoopCopyDataInit>:

LoopCopyDataInit:
  adds r4, r0, r3
 8000584:	18c4      	adds	r4, r0, r3
  cmp r4, r1
 8000586:	428c      	cmp	r4, r1
  bcc CopyDataInit
 8000588:	d3f9      	bcc.n	800057e <CopyDataInit>
  
/* Zero fill the bss segment. */
  ldr r2, =_sbss
 800058a:	4a0b      	ldr	r2, [pc, #44]	; (80005b8 <LoopForever+0x12>)
  ldr r4, =_ebss
 800058c:	4c0b      	ldr	r4, [pc, #44]	; (80005bc <LoopForever+0x16>)
  movs r3, #0
 800058e:	2300      	movs	r3, #0
  b LoopFillZerobss
 8000590:	e001      	b.n	8000596 <LoopFillZerobss>

08000592 <FillZerobss>:

FillZerobss:
  str  r3, [r2]
 8000592:	6013      	str	r3, [r2, #0]
  adds r2, r2, #4
 8000594:	3204      	adds	r2, #4

08000596 <LoopFillZerobss>:

LoopFillZerobss:
  cmp r2, r4
 8000596:	42a2      	cmp	r2, r4
  bcc FillZerobss
 8000598:	d3fb      	bcc.n	8000592 <FillZerobss>

/* Call the clock system intitialization function.*/
  bl  SystemInit
 800059a:	f7ff ffe4 	bl	8000566 <SystemInit>
/* Call static constructors */
  bl __libc_init_array
 800059e:	f001 fe5d 	bl	800225c <__libc_init_array>
/* Call the application's entry point.*/
  bl main
 80005a2:	f7ff fe3d 	bl	8000220 <main>

080005a6 <LoopForever>:

LoopForever:
    b LoopForever
 80005a6:	e7fe      	b.n	80005a6 <LoopForever>
  ldr   r0, =_estack
 80005a8:	20004000 	.word	0x20004000
  ldr r0, =_sdata
 80005ac:	20000000 	.word	0x20000000
  ldr r1, =_edata
 80005b0:	2000000c 	.word	0x2000000c
  ldr r2, =_sidata
 80005b4:	0800230c 	.word	0x0800230c
  ldr r2, =_sbss
 80005b8:	2000000c 	.word	0x2000000c
  ldr r4, =_ebss
 80005bc:	200008c0 	.word	0x200008c0

080005c0 <ADC1_IRQHandler>:
 * @retval : None
*/
    .section .text.Default_Handler,"ax",%progbits
Default_Handler:
Infinite_Loop:
  b Infinite_Loop
 80005c0:	e7fe      	b.n	80005c0 <ADC1_IRQHandler>
	...

080005c4 <HAL_Init>:
  *       In the default implementation,Systick is used as source of time base.
  *       The tick variable is incremented each 1ms in its ISR.
  * @retval HAL status
  */
HAL_StatusTypeDef HAL_Init(void)
{
 80005c4:	b580      	push	{r7, lr}
 80005c6:	af00      	add	r7, sp, #0
  /* Configure Flash prefetch */ 
#if (PREFETCH_ENABLE != 0)
  __HAL_FLASH_PREFETCH_BUFFER_ENABLE();
 80005c8:	4b07      	ldr	r3, [pc, #28]	; (80005e8 <HAL_Init+0x24>)
 80005ca:	681a      	ldr	r2, [r3, #0]
 80005cc:	4b06      	ldr	r3, [pc, #24]	; (80005e8 <HAL_Init+0x24>)
 80005ce:	2110      	movs	r1, #16
 80005d0:	430a      	orrs	r2, r1
 80005d2:	601a      	str	r2, [r3, #0]
#endif /* PREFETCH_ENABLE */

  /* Use systick as time base source and configure 1ms tick (default clock after Reset is HSI) */

  HAL_InitTick(TICK_INT_PRIORITY);
 80005d4:	2000      	movs	r0, #0
 80005d6:	f000 f809 	bl	80005ec <HAL_InitTick>

  /* Init the low level hardware */
  HAL_MspInit();
 80005da:	f7ff ff19 	bl	8000410 <HAL_MspInit>

  /* Return function status */
  return HAL_OK;
 80005de:	2300      	movs	r3, #0
}
 80005e0:	0018      	movs	r0, r3
 80005e2:	46bd      	mov	sp, r7
 80005e4:	bd80      	pop	{r7, pc}
 80005e6:	46c0      	nop			; (mov r8, r8)
 80005e8:	40022000 	.word	0x40022000

080005ec <HAL_InitTick>:
  *       implementation  in user file.
  * @param TickPriority Tick interrupt priority.
  * @retval HAL status
  */
__weak HAL_StatusTypeDef HAL_InitTick(uint32_t TickPriority)
{
 80005ec:	b590      	push	{r4, r7, lr}
 80005ee:	b083      	sub	sp, #12
 80005f0:	af00      	add	r7, sp, #0
 80005f2:	6078      	str	r0, [r7, #4]
  /*Configure the SysTick to have interrupt in 1ms time basis*/
  if (HAL_SYSTICK_Config(SystemCoreClock / (1000U / uwTickFreq)) > 0U)
 80005f4:	4b14      	ldr	r3, [pc, #80]	; (8000648 <HAL_InitTick+0x5c>)
 80005f6:	681c      	ldr	r4, [r3, #0]
 80005f8:	4b14      	ldr	r3, [pc, #80]	; (800064c <HAL_InitTick+0x60>)
 80005fa:	781b      	ldrb	r3, [r3, #0]
 80005fc:	0019      	movs	r1, r3
 80005fe:	23fa      	movs	r3, #250	; 0xfa
 8000600:	0098      	lsls	r0, r3, #2
 8000602:	f7ff fd81 	bl	8000108 <__udivsi3>
 8000606:	0003      	movs	r3, r0
 8000608:	0019      	movs	r1, r3
 800060a:	0020      	movs	r0, r4
 800060c:	f7ff fd7c 	bl	8000108 <__udivsi3>
 8000610:	0003      	movs	r3, r0
 8000612:	0018      	movs	r0, r3
 8000614:	f000 f90b 	bl	800082e <HAL_SYSTICK_Config>
 8000618:	1e03      	subs	r3, r0, #0
 800061a:	d001      	beq.n	8000620 <HAL_InitTick+0x34>
  {
    return HAL_ERROR;
 800061c:	2301      	movs	r3, #1
 800061e:	e00f      	b.n	8000640 <HAL_InitTick+0x54>
  }

  /* Configure the SysTick IRQ priority */
  if (TickPriority < (1UL << __NVIC_PRIO_BITS))
 8000620:	687b      	ldr	r3, [r7, #4]
 8000622:	2b03      	cmp	r3, #3
 8000624:	d80b      	bhi.n	800063e <HAL_InitTick+0x52>
  {
    HAL_NVIC_SetPriority(SysTick_IRQn, TickPriority, 0U);
 8000626:	6879      	ldr	r1, [r7, #4]
 8000628:	2301      	movs	r3, #1
 800062a:	425b      	negs	r3, r3
 800062c:	2200      	movs	r2, #0
 800062e:	0018      	movs	r0, r3
 8000630:	f000 f8d8 	bl	80007e4 <HAL_NVIC_SetPriority>
    uwTickPrio = TickPriority;
 8000634:	4b06      	ldr	r3, [pc, #24]	; (8000650 <HAL_InitTick+0x64>)
 8000636:	687a      	ldr	r2, [r7, #4]
 8000638:	601a      	str	r2, [r3, #0]
  {
    return HAL_ERROR;
  }

   /* Return function status */
  return HAL_OK;
 800063a:	2300      	movs	r3, #0
 800063c:	e000      	b.n	8000640 <HAL_InitTick+0x54>
    return HAL_ERROR;
 800063e:	2301      	movs	r3, #1
}
 8000640:	0018      	movs	r0, r3
 8000642:	46bd      	mov	sp, r7
 8000644:	b003      	add	sp, #12
 8000646:	bd90      	pop	{r4, r7, pc}
 8000648:	20000000 	.word	0x20000000
 800064c:	20000008 	.word	0x20000008
 8000650:	20000004 	.word	0x20000004

08000654 <HAL_IncTick>:
  * @note This function is declared as __weak to be overwritten in case of other 
  *       implementations in user file.
  * @retval None
  */
__weak void HAL_IncTick(void)
{
 8000654:	b580      	push	{r7, lr}
 8000656:	af00      	add	r7, sp, #0
  uwTick += uwTickFreq;
 8000658:	4b05      	ldr	r3, [pc, #20]	; (8000670 <HAL_IncTick+0x1c>)
 800065a:	781b      	ldrb	r3, [r3, #0]
 800065c:	001a      	movs	r2, r3
 800065e:	4b05      	ldr	r3, [pc, #20]	; (8000674 <HAL_IncTick+0x20>)
 8000660:	681b      	ldr	r3, [r3, #0]
 8000662:	18d2      	adds	r2, r2, r3
 8000664:	4b03      	ldr	r3, [pc, #12]	; (8000674 <HAL_IncTick+0x20>)
 8000666:	601a      	str	r2, [r3, #0]
}
 8000668:	46c0      	nop			; (mov r8, r8)
 800066a:	46bd      	mov	sp, r7
 800066c:	bd80      	pop	{r7, pc}
 800066e:	46c0      	nop			; (mov r8, r8)
 8000670:	20000008 	.word	0x20000008
 8000674:	20000028 	.word	0x20000028

08000678 <HAL_GetTick>:
  * @note   This function is declared as __weak  to be overwritten  in case of other 
  *       implementations in user file.
  * @retval tick value
  */
__weak uint32_t HAL_GetTick(void)
{
 8000678:	b580      	push	{r7, lr}
 800067a:	af00      	add	r7, sp, #0
  return uwTick;
 800067c:	4b02      	ldr	r3, [pc, #8]	; (8000688 <HAL_GetTick+0x10>)
 800067e:	681b      	ldr	r3, [r3, #0]
}
 8000680:	0018      	movs	r0, r3
 8000682:	46bd      	mov	sp, r7
 8000684:	bd80      	pop	{r7, pc}
 8000686:	46c0      	nop			; (mov r8, r8)
 8000688:	20000028 	.word	0x20000028

0800068c <__NVIC_EnableIRQ>:
  \details Enables a device specific interrupt in the NVIC interrupt controller.
  \param [in]      IRQn  Device specific interrupt number.
  \note    IRQn must not be negative.
 */
__STATIC_INLINE void __NVIC_EnableIRQ(IRQn_Type IRQn)
{
 800068c:	b580      	push	{r7, lr}
 800068e:	b082      	sub	sp, #8
 8000690:	af00      	add	r7, sp, #0
 8000692:	0002      	movs	r2, r0
 8000694:	1dfb      	adds	r3, r7, #7
 8000696:	701a      	strb	r2, [r3, #0]
  if ((int32_t)(IRQn) >= 0)
 8000698:	1dfb      	adds	r3, r7, #7
 800069a:	781b      	ldrb	r3, [r3, #0]
 800069c:	2b7f      	cmp	r3, #127	; 0x7f
 800069e:	d809      	bhi.n	80006b4 <__NVIC_EnableIRQ+0x28>
  {
    NVIC->ISER[0U] = (uint32_t)(1UL << (((uint32_t)IRQn) & 0x1FUL));
 80006a0:	1dfb      	adds	r3, r7, #7
 80006a2:	781b      	ldrb	r3, [r3, #0]
 80006a4:	001a      	movs	r2, r3
 80006a6:	231f      	movs	r3, #31
 80006a8:	401a      	ands	r2, r3
 80006aa:	4b04      	ldr	r3, [pc, #16]	; (80006bc <__NVIC_EnableIRQ+0x30>)
 80006ac:	2101      	movs	r1, #1
 80006ae:	4091      	lsls	r1, r2
 80006b0:	000a      	movs	r2, r1
 80006b2:	601a      	str	r2, [r3, #0]
  }
}
 80006b4:	46c0      	nop			; (mov r8, r8)
 80006b6:	46bd      	mov	sp, r7
 80006b8:	b002      	add	sp, #8
 80006ba:	bd80      	pop	{r7, pc}
 80006bc:	e000e100 	.word	0xe000e100

080006c0 <__NVIC_SetPriority>:
  \param [in]      IRQn  Interrupt number.
  \param [in]  priority  Priority to set.
  \note    The priority cannot be set for every processor exception.
 */
__STATIC_INLINE void __NVIC_SetPriority(IRQn_Type IRQn, uint32_t priority)
{
 80006c0:	b590      	push	{r4, r7, lr}
 80006c2:	b083      	sub	sp, #12
 80006c4:	af00      	add	r7, sp, #0
 80006c6:	0002      	movs	r2, r0
 80006c8:	6039      	str	r1, [r7, #0]
 80006ca:	1dfb      	adds	r3, r7, #7
 80006cc:	701a      	strb	r2, [r3, #0]
  if ((int32_t)(IRQn) >= 0)
 80006ce:	1dfb      	adds	r3, r7, #7
 80006d0:	781b      	ldrb	r3, [r3, #0]
 80006d2:	2b7f      	cmp	r3, #127	; 0x7f
 80006d4:	d828      	bhi.n	8000728 <__NVIC_SetPriority+0x68>
  {
    NVIC->IP[_IP_IDX(IRQn)]  = ((uint32_t)(NVIC->IP[_IP_IDX(IRQn)]  & ~(0xFFUL << _BIT_SHIFT(IRQn))) |
 80006d6:	4a2f      	ldr	r2, [pc, #188]	; (8000794 <__NVIC_SetPriority+0xd4>)
 80006d8:	1dfb      	adds	r3, r7, #7
 80006da:	781b      	ldrb	r3, [r3, #0]
 80006dc:	b25b      	sxtb	r3, r3
 80006de:	089b      	lsrs	r3, r3, #2
 80006e0:	33c0      	adds	r3, #192	; 0xc0
 80006e2:	009b      	lsls	r3, r3, #2
 80006e4:	589b      	ldr	r3, [r3, r2]
 80006e6:	1dfa      	adds	r2, r7, #7
 80006e8:	7812      	ldrb	r2, [r2, #0]
 80006ea:	0011      	movs	r1, r2
 80006ec:	2203      	movs	r2, #3
 80006ee:	400a      	ands	r2, r1
 80006f0:	00d2      	lsls	r2, r2, #3
 80006f2:	21ff      	movs	r1, #255	; 0xff
 80006f4:	4091      	lsls	r1, r2
 80006f6:	000a      	movs	r2, r1
 80006f8:	43d2      	mvns	r2, r2
 80006fa:	401a      	ands	r2, r3
 80006fc:	0011      	movs	r1, r2
       (((priority << (8U - __NVIC_PRIO_BITS)) & (uint32_t)0xFFUL) << _BIT_SHIFT(IRQn)));
 80006fe:	683b      	ldr	r3, [r7, #0]
 8000700:	019b      	lsls	r3, r3, #6
 8000702:	22ff      	movs	r2, #255	; 0xff
 8000704:	401a      	ands	r2, r3
 8000706:	1dfb      	adds	r3, r7, #7
 8000708:	781b      	ldrb	r3, [r3, #0]
 800070a:	0018      	movs	r0, r3
 800070c:	2303      	movs	r3, #3
 800070e:	4003      	ands	r3, r0
 8000710:	00db      	lsls	r3, r3, #3
 8000712:	409a      	lsls	r2, r3
    NVIC->IP[_IP_IDX(IRQn)]  = ((uint32_t)(NVIC->IP[_IP_IDX(IRQn)]  & ~(0xFFUL << _BIT_SHIFT(IRQn))) |
 8000714:	481f      	ldr	r0, [pc, #124]	; (8000794 <__NVIC_SetPriority+0xd4>)
 8000716:	1dfb      	adds	r3, r7, #7
 8000718:	781b      	ldrb	r3, [r3, #0]
 800071a:	b25b      	sxtb	r3, r3
 800071c:	089b      	lsrs	r3, r3, #2
 800071e:	430a      	orrs	r2, r1
 8000720:	33c0      	adds	r3, #192	; 0xc0
 8000722:	009b      	lsls	r3, r3, #2
 8000724:	501a      	str	r2, [r3, r0]
  else
  {
    SCB->SHP[_SHP_IDX(IRQn)] = ((uint32_t)(SCB->SHP[_SHP_IDX(IRQn)] & ~(0xFFUL << _BIT_SHIFT(IRQn))) |
       (((priority << (8U - __NVIC_PRIO_BITS)) & (uint32_t)0xFFUL) << _BIT_SHIFT(IRQn)));
  }
}
 8000726:	e031      	b.n	800078c <__NVIC_SetPriority+0xcc>
    SCB->SHP[_SHP_IDX(IRQn)] = ((uint32_t)(SCB->SHP[_SHP_IDX(IRQn)] & ~(0xFFUL << _BIT_SHIFT(IRQn))) |
 8000728:	4a1b      	ldr	r2, [pc, #108]	; (8000798 <__NVIC_SetPriority+0xd8>)
 800072a:	1dfb      	adds	r3, r7, #7
 800072c:	781b      	ldrb	r3, [r3, #0]
 800072e:	0019      	movs	r1, r3
 8000730:	230f      	movs	r3, #15
 8000732:	400b      	ands	r3, r1
 8000734:	3b08      	subs	r3, #8
 8000736:	089b      	lsrs	r3, r3, #2
 8000738:	3306      	adds	r3, #6
 800073a:	009b      	lsls	r3, r3, #2
 800073c:	18d3      	adds	r3, r2, r3
 800073e:	3304      	adds	r3, #4
 8000740:	681b      	ldr	r3, [r3, #0]
 8000742:	1dfa      	adds	r2, r7, #7
 8000744:	7812      	ldrb	r2, [r2, #0]
 8000746:	0011      	movs	r1, r2
 8000748:	2203      	movs	r2, #3
 800074a:	400a      	ands	r2, r1
 800074c:	00d2      	lsls	r2, r2, #3
 800074e:	21ff      	movs	r1, #255	; 0xff
 8000750:	4091      	lsls	r1, r2
 8000752:	000a      	movs	r2, r1
 8000754:	43d2      	mvns	r2, r2
 8000756:	401a      	ands	r2, r3
 8000758:	0011      	movs	r1, r2
       (((priority << (8U - __NVIC_PRIO_BITS)) & (uint32_t)0xFFUL) << _BIT_SHIFT(IRQn)));
 800075a:	683b      	ldr	r3, [r7, #0]
 800075c:	019b      	lsls	r3, r3, #6
 800075e:	22ff      	movs	r2, #255	; 0xff
 8000760:	401a      	ands	r2, r3
 8000762:	1dfb      	adds	r3, r7, #7
 8000764:	781b      	ldrb	r3, [r3, #0]
 8000766:	0018      	movs	r0, r3
 8000768:	2303      	movs	r3, #3
 800076a:	4003      	ands	r3, r0
 800076c:	00db      	lsls	r3, r3, #3
 800076e:	409a      	lsls	r2, r3
    SCB->SHP[_SHP_IDX(IRQn)] = ((uint32_t)(SCB->SHP[_SHP_IDX(IRQn)] & ~(0xFFUL << _BIT_SHIFT(IRQn))) |
 8000770:	4809      	ldr	r0, [pc, #36]	; (8000798 <__NVIC_SetPriority+0xd8>)
 8000772:	1dfb      	adds	r3, r7, #7
 8000774:	781b      	ldrb	r3, [r3, #0]
 8000776:	001c      	movs	r4, r3
 8000778:	230f      	movs	r3, #15
 800077a:	4023      	ands	r3, r4
 800077c:	3b08      	subs	r3, #8
 800077e:	089b      	lsrs	r3, r3, #2
 8000780:	430a      	orrs	r2, r1
 8000782:	3306      	adds	r3, #6
 8000784:	009b      	lsls	r3, r3, #2
 8000786:	18c3      	adds	r3, r0, r3
 8000788:	3304      	adds	r3, #4
 800078a:	601a      	str	r2, [r3, #0]
}
 800078c:	46c0      	nop			; (mov r8, r8)
 800078e:	46bd      	mov	sp, r7
 8000790:	b003      	add	sp, #12
 8000792:	bd90      	pop	{r4, r7, pc}
 8000794:	e000e100 	.word	0xe000e100
 8000798:	e000ed00 	.word	0xe000ed00

0800079c <SysTick_Config>:
  \note    When the variable <b>__Vendor_SysTickConfig</b> is set to 1, then the
           function <b>SysTick_Config</b> is not included. In this case, the file <b><i>device</i>.h</b>
           must contain a vendor-specific implementation of this function.
 */
__STATIC_INLINE uint32_t SysTick_Config(uint32_t ticks)
{
 800079c:	b580      	push	{r7, lr}
 800079e:	b082      	sub	sp, #8
 80007a0:	af00      	add	r7, sp, #0
 80007a2:	6078      	str	r0, [r7, #4]
  if ((ticks - 1UL) > SysTick_LOAD_RELOAD_Msk)
 80007a4:	687b      	ldr	r3, [r7, #4]
 80007a6:	3b01      	subs	r3, #1
 80007a8:	4a0c      	ldr	r2, [pc, #48]	; (80007dc <SysTick_Config+0x40>)
 80007aa:	4293      	cmp	r3, r2
 80007ac:	d901      	bls.n	80007b2 <SysTick_Config+0x16>
  {
    return (1UL);                                                   /* Reload value impossible */
 80007ae:	2301      	movs	r3, #1
 80007b0:	e010      	b.n	80007d4 <SysTick_Config+0x38>
  }

  SysTick->LOAD  = (uint32_t)(ticks - 1UL);                         /* set reload register */
 80007b2:	4b0b      	ldr	r3, [pc, #44]	; (80007e0 <SysTick_Config+0x44>)
 80007b4:	687a      	ldr	r2, [r7, #4]
 80007b6:	3a01      	subs	r2, #1
 80007b8:	605a      	str	r2, [r3, #4]
  NVIC_SetPriority (SysTick_IRQn, (1UL << __NVIC_PRIO_BITS) - 1UL); /* set Priority for Systick Interrupt */
 80007ba:	2301      	movs	r3, #1
 80007bc:	425b      	negs	r3, r3
 80007be:	2103      	movs	r1, #3
 80007c0:	0018      	movs	r0, r3
 80007c2:	f7ff ff7d 	bl	80006c0 <__NVIC_SetPriority>
  SysTick->VAL   = 0UL;                                             /* Load the SysTick Counter Value */
 80007c6:	4b06      	ldr	r3, [pc, #24]	; (80007e0 <SysTick_Config+0x44>)
 80007c8:	2200      	movs	r2, #0
 80007ca:	609a      	str	r2, [r3, #8]
  SysTick->CTRL  = SysTick_CTRL_CLKSOURCE_Msk |
 80007cc:	4b04      	ldr	r3, [pc, #16]	; (80007e0 <SysTick_Config+0x44>)
 80007ce:	2207      	movs	r2, #7
 80007d0:	601a      	str	r2, [r3, #0]
                   SysTick_CTRL_TICKINT_Msk   |
                   SysTick_CTRL_ENABLE_Msk;                         /* Enable SysTick IRQ and SysTick Timer */
  return (0UL);                                                     /* Function successful */
 80007d2:	2300      	movs	r3, #0
}
 80007d4:	0018      	movs	r0, r3
 80007d6:	46bd      	mov	sp, r7
 80007d8:	b002      	add	sp, #8
 80007da:	bd80      	pop	{r7, pc}
 80007dc:	00ffffff 	.word	0x00ffffff
 80007e0:	e000e010 	.word	0xe000e010

080007e4 <HAL_NVIC_SetPriority>:
  *         with stm32f0xx devices, this parameter is a dummy value and it is ignored, because 
  *         no subpriority supported in Cortex M0 based products.   
  * @retval None
  */
void HAL_NVIC_SetPriority(IRQn_Type IRQn, uint32_t PreemptPriority, uint32_t SubPriority)
{ 
 80007e4:	b580      	push	{r7, lr}
 80007e6:	b084      	sub	sp, #16
 80007e8:	af00      	add	r7, sp, #0
 80007ea:	60b9      	str	r1, [r7, #8]
 80007ec:	607a      	str	r2, [r7, #4]
 80007ee:	210f      	movs	r1, #15
 80007f0:	187b      	adds	r3, r7, r1
 80007f2:	1c02      	adds	r2, r0, #0
 80007f4:	701a      	strb	r2, [r3, #0]
  /* Check the parameters */
  assert_param(IS_NVIC_PREEMPTION_PRIORITY(PreemptPriority));
  NVIC_SetPriority(IRQn,PreemptPriority);
 80007f6:	68ba      	ldr	r2, [r7, #8]
 80007f8:	187b      	adds	r3, r7, r1
 80007fa:	781b      	ldrb	r3, [r3, #0]
 80007fc:	b25b      	sxtb	r3, r3
 80007fe:	0011      	movs	r1, r2
 8000800:	0018      	movs	r0, r3
 8000802:	f7ff ff5d 	bl	80006c0 <__NVIC_SetPriority>
}
 8000806:	46c0      	nop			; (mov r8, r8)
 8000808:	46bd      	mov	sp, r7
 800080a:	b004      	add	sp, #16
 800080c:	bd80      	pop	{r7, pc}

0800080e <HAL_NVIC_EnableIRQ>:
  *         This parameter can be an enumerator of IRQn_Type enumeration
  *         (For the complete STM32 Devices IRQ Channels list, please refer to the appropriate CMSIS device file (stm32f0xxxx.h))
  * @retval None
  */
void HAL_NVIC_EnableIRQ(IRQn_Type IRQn)
{
 800080e:	b580      	push	{r7, lr}
 8000810:	b082      	sub	sp, #8
 8000812:	af00      	add	r7, sp, #0
 8000814:	0002      	movs	r2, r0
 8000816:	1dfb      	adds	r3, r7, #7
 8000818:	701a      	strb	r2, [r3, #0]
  /* Check the parameters */
  assert_param(IS_NVIC_DEVICE_IRQ(IRQn));
  
  /* Enable interrupt */
  NVIC_EnableIRQ(IRQn);
 800081a:	1dfb      	adds	r3, r7, #7
 800081c:	781b      	ldrb	r3, [r3, #0]
 800081e:	b25b      	sxtb	r3, r3
 8000820:	0018      	movs	r0, r3
 8000822:	f7ff ff33 	bl	800068c <__NVIC_EnableIRQ>
}
 8000826:	46c0      	nop			; (mov r8, r8)
 8000828:	46bd      	mov	sp, r7
 800082a:	b002      	add	sp, #8
 800082c:	bd80      	pop	{r7, pc}

0800082e <HAL_SYSTICK_Config>:
  * @param  TicksNumb Specifies the ticks Number of ticks between two interrupts.
  * @retval status:  - 0  Function succeeded.
  *                  - 1  Function failed.
  */
uint32_t HAL_SYSTICK_Config(uint32_t TicksNumb)
{
 800082e:	b580      	push	{r7, lr}
 8000830:	b082      	sub	sp, #8
 8000832:	af00      	add	r7, sp, #0
 8000834:	6078      	str	r0, [r7, #4]
   return SysTick_Config(TicksNumb);
 8000836:	687b      	ldr	r3, [r7, #4]
 8000838:	0018      	movs	r0, r3
 800083a:	f7ff ffaf 	bl	800079c <SysTick_Config>
 800083e:	0003      	movs	r3, r0
}
 8000840:	0018      	movs	r0, r3
 8000842:	46bd      	mov	sp, r7
 8000844:	b002      	add	sp, #8
 8000846:	bd80      	pop	{r7, pc}

08000848 <HAL_GPIO_Init>:
  * @param  GPIO_Init pointer to a GPIO_InitTypeDef structure that contains
  *         the configuration information for the specified GPIO peripheral.
  * @retval None
  */
void HAL_GPIO_Init(GPIO_TypeDef  *GPIOx, GPIO_InitTypeDef *GPIO_Init)
{ 
 8000848:	b580      	push	{r7, lr}
 800084a:	b086      	sub	sp, #24
 800084c:	af00      	add	r7, sp, #0
 800084e:	6078      	str	r0, [r7, #4]
 8000850:	6039      	str	r1, [r7, #0]
  uint32_t position = 0x00u;
 8000852:	2300      	movs	r3, #0
 8000854:	617b      	str	r3, [r7, #20]
  assert_param(IS_GPIO_PIN(GPIO_Init->Pin));
  assert_param(IS_GPIO_MODE(GPIO_Init->Mode));
  assert_param(IS_GPIO_PULL(GPIO_Init->Pull));

  /* Configure the port pins */
  while (((GPIO_Init->Pin) >> position) != 0x00u)
 8000856:	e14f      	b.n	8000af8 <HAL_GPIO_Init+0x2b0>
  {
    /* Get current io position */
    iocurrent = (GPIO_Init->Pin) & (1uL << position);
 8000858:	683b      	ldr	r3, [r7, #0]
 800085a:	681b      	ldr	r3, [r3, #0]
 800085c:	2101      	movs	r1, #1
 800085e:	697a      	ldr	r2, [r7, #20]
 8000860:	4091      	lsls	r1, r2
 8000862:	000a      	movs	r2, r1
 8000864:	4013      	ands	r3, r2
 8000866:	60fb      	str	r3, [r7, #12]

    if (iocurrent != 0x00u)
 8000868:	68fb      	ldr	r3, [r7, #12]
 800086a:	2b00      	cmp	r3, #0
 800086c:	d100      	bne.n	8000870 <HAL_GPIO_Init+0x28>
 800086e:	e140      	b.n	8000af2 <HAL_GPIO_Init+0x2aa>
    {
      /*--------------------- GPIO Mode Configuration ------------------------*/
      /* In case of Output or Alternate function mode selection */
      if((GPIO_Init->Mode == GPIO_MODE_OUTPUT_PP) || (GPIO_Init->Mode == GPIO_MODE_AF_PP) ||
 8000870:	683b      	ldr	r3, [r7, #0]
 8000872:	685b      	ldr	r3, [r3, #4]
 8000874:	2b01      	cmp	r3, #1
 8000876:	d00b      	beq.n	8000890 <HAL_GPIO_Init+0x48>
 8000878:	683b      	ldr	r3, [r7, #0]
 800087a:	685b      	ldr	r3, [r3, #4]
 800087c:	2b02      	cmp	r3, #2
 800087e:	d007      	beq.n	8000890 <HAL_GPIO_Init+0x48>
         (GPIO_Init->Mode == GPIO_MODE_OUTPUT_OD) || (GPIO_Init->Mode == GPIO_MODE_AF_OD))
 8000880:	683b      	ldr	r3, [r7, #0]
 8000882:	685b      	ldr	r3, [r3, #4]
      if((GPIO_Init->Mode == GPIO_MODE_OUTPUT_PP) || (GPIO_Init->Mode == GPIO_MODE_AF_PP) ||
 8000884:	2b11      	cmp	r3, #17
 8000886:	d003      	beq.n	8000890 <HAL_GPIO_Init+0x48>
         (GPIO_Init->Mode == GPIO_MODE_OUTPUT_OD) || (GPIO_Init->Mode == GPIO_MODE_AF_OD))
 8000888:	683b      	ldr	r3, [r7, #0]
 800088a:	685b      	ldr	r3, [r3, #4]
 800088c:	2b12      	cmp	r3, #18
 800088e:	d130      	bne.n	80008f2 <HAL_GPIO_Init+0xaa>
      {
        /* Check the Speed parameter */
        assert_param(IS_GPIO_SPEED(GPIO_Init->Speed));
        /* Configure the IO Speed */
        temp = GPIOx->OSPEEDR;
 8000890:	687b      	ldr	r3, [r7, #4]
 8000892:	689b      	ldr	r3, [r3, #8]
 8000894:	613b      	str	r3, [r7, #16]
        temp &= ~(GPIO_OSPEEDER_OSPEEDR0 << (position * 2u));
 8000896:	697b      	ldr	r3, [r7, #20]
 8000898:	005b      	lsls	r3, r3, #1
 800089a:	2203      	movs	r2, #3
 800089c:	409a      	lsls	r2, r3
 800089e:	0013      	movs	r3, r2
 80008a0:	43da      	mvns	r2, r3
 80008a2:	693b      	ldr	r3, [r7, #16]
 80008a4:	4013      	ands	r3, r2
 80008a6:	613b      	str	r3, [r7, #16]
        temp |= (GPIO_Init->Speed << (position * 2u));
 80008a8:	683b      	ldr	r3, [r7, #0]
 80008aa:	68da      	ldr	r2, [r3, #12]
 80008ac:	697b      	ldr	r3, [r7, #20]
 80008ae:	005b      	lsls	r3, r3, #1
 80008b0:	409a      	lsls	r2, r3
 80008b2:	0013      	movs	r3, r2
 80008b4:	693a      	ldr	r2, [r7, #16]
 80008b6:	4313      	orrs	r3, r2
 80008b8:	613b      	str	r3, [r7, #16]
        GPIOx->OSPEEDR = temp;
 80008ba:	687b      	ldr	r3, [r7, #4]
 80008bc:	693a      	ldr	r2, [r7, #16]
 80008be:	609a      	str	r2, [r3, #8]

        /* Configure the IO Output Type */
        temp = GPIOx->OTYPER;
 80008c0:	687b      	ldr	r3, [r7, #4]
 80008c2:	685b      	ldr	r3, [r3, #4]
 80008c4:	613b      	str	r3, [r7, #16]
        temp &= ~(GPIO_OTYPER_OT_0 << position) ;
 80008c6:	2201      	movs	r2, #1
 80008c8:	697b      	ldr	r3, [r7, #20]
 80008ca:	409a      	lsls	r2, r3
 80008cc:	0013      	movs	r3, r2
 80008ce:	43da      	mvns	r2, r3
 80008d0:	693b      	ldr	r3, [r7, #16]
 80008d2:	4013      	ands	r3, r2
 80008d4:	613b      	str	r3, [r7, #16]
        temp |= (((GPIO_Init->Mode & GPIO_OUTPUT_TYPE) >> 4u) << position);
 80008d6:	683b      	ldr	r3, [r7, #0]
 80008d8:	685b      	ldr	r3, [r3, #4]
 80008da:	091b      	lsrs	r3, r3, #4
 80008dc:	2201      	movs	r2, #1
 80008de:	401a      	ands	r2, r3
 80008e0:	697b      	ldr	r3, [r7, #20]
 80008e2:	409a      	lsls	r2, r3
 80008e4:	0013      	movs	r3, r2
 80008e6:	693a      	ldr	r2, [r7, #16]
 80008e8:	4313      	orrs	r3, r2
 80008ea:	613b      	str	r3, [r7, #16]
        GPIOx->OTYPER = temp;
 80008ec:	687b      	ldr	r3, [r7, #4]
 80008ee:	693a      	ldr	r2, [r7, #16]
 80008f0:	605a      	str	r2, [r3, #4]
      }

      /* Activate the Pull-up or Pull down resistor for the current IO */
      temp = GPIOx->PUPDR;
 80008f2:	687b      	ldr	r3, [r7, #4]
 80008f4:	68db      	ldr	r3, [r3, #12]
 80008f6:	613b      	str	r3, [r7, #16]
      temp &= ~(GPIO_PUPDR_PUPDR0 << (position * 2u));
 80008f8:	697b      	ldr	r3, [r7, #20]
 80008fa:	005b      	lsls	r3, r3, #1
 80008fc:	2203      	movs	r2, #3
 80008fe:	409a      	lsls	r2, r3
 8000900:	0013      	movs	r3, r2
 8000902:	43da      	mvns	r2, r3
 8000904:	693b      	ldr	r3, [r7, #16]
 8000906:	4013      	ands	r3, r2
 8000908:	613b      	str	r3, [r7, #16]
      temp |= ((GPIO_Init->Pull) << (position * 2u));
 800090a:	683b      	ldr	r3, [r7, #0]
 800090c:	689a      	ldr	r2, [r3, #8]
 800090e:	697b      	ldr	r3, [r7, #20]
 8000910:	005b      	lsls	r3, r3, #1
 8000912:	409a      	lsls	r2, r3
 8000914:	0013      	movs	r3, r2
 8000916:	693a      	ldr	r2, [r7, #16]
 8000918:	4313      	orrs	r3, r2
 800091a:	613b      	str	r3, [r7, #16]
      GPIOx->PUPDR = temp;
 800091c:	687b      	ldr	r3, [r7, #4]
 800091e:	693a      	ldr	r2, [r7, #16]
 8000920:	60da      	str	r2, [r3, #12]

      /* In case of Alternate function mode selection */
      if((GPIO_Init->Mode == GPIO_MODE_AF_PP) || (GPIO_Init->Mode == GPIO_MODE_AF_OD))
 8000922:	683b      	ldr	r3, [r7, #0]
 8000924:	685b      	ldr	r3, [r3, #4]
 8000926:	2b02      	cmp	r3, #2
 8000928:	d003      	beq.n	8000932 <HAL_GPIO_Init+0xea>
 800092a:	683b      	ldr	r3, [r7, #0]
 800092c:	685b      	ldr	r3, [r3, #4]
 800092e:	2b12      	cmp	r3, #18
 8000930:	d123      	bne.n	800097a <HAL_GPIO_Init+0x132>
        /* Check the Alternate function parameters */
        assert_param(IS_GPIO_AF_INSTANCE(GPIOx));
        assert_param(IS_GPIO_AF(GPIO_Init->Alternate));

        /* Configure Alternate function mapped with the current IO */
        temp = GPIOx->AFR[position >> 3u];
 8000932:	697b      	ldr	r3, [r7, #20]
 8000934:	08da      	lsrs	r2, r3, #3
 8000936:	687b      	ldr	r3, [r7, #4]
 8000938:	3208      	adds	r2, #8
 800093a:	0092      	lsls	r2, r2, #2
 800093c:	58d3      	ldr	r3, [r2, r3]
 800093e:	613b      	str	r3, [r7, #16]
        temp &= ~(0xFu << ((position & 0x07u) * 4u));
 8000940:	697b      	ldr	r3, [r7, #20]
 8000942:	2207      	movs	r2, #7
 8000944:	4013      	ands	r3, r2
 8000946:	009b      	lsls	r3, r3, #2
 8000948:	220f      	movs	r2, #15
 800094a:	409a      	lsls	r2, r3
 800094c:	0013      	movs	r3, r2
 800094e:	43da      	mvns	r2, r3
 8000950:	693b      	ldr	r3, [r7, #16]
 8000952:	4013      	ands	r3, r2
 8000954:	613b      	str	r3, [r7, #16]
        temp |= ((GPIO_Init->Alternate) << ((position & 0x07u) * 4u));
 8000956:	683b      	ldr	r3, [r7, #0]
 8000958:	691a      	ldr	r2, [r3, #16]
 800095a:	697b      	ldr	r3, [r7, #20]
 800095c:	2107      	movs	r1, #7
 800095e:	400b      	ands	r3, r1
 8000960:	009b      	lsls	r3, r3, #2
 8000962:	409a      	lsls	r2, r3
 8000964:	0013      	movs	r3, r2
 8000966:	693a      	ldr	r2, [r7, #16]
 8000968:	4313      	orrs	r3, r2
 800096a:	613b      	str	r3, [r7, #16]
        GPIOx->AFR[position >> 3u] = temp;
 800096c:	697b      	ldr	r3, [r7, #20]
 800096e:	08da      	lsrs	r2, r3, #3
 8000970:	687b      	ldr	r3, [r7, #4]
 8000972:	3208      	adds	r2, #8
 8000974:	0092      	lsls	r2, r2, #2
 8000976:	6939      	ldr	r1, [r7, #16]
 8000978:	50d1      	str	r1, [r2, r3]
      }

      /* Configure IO Direction mode (Input, Output, Alternate or Analog) */
      temp = GPIOx->MODER;
 800097a:	687b      	ldr	r3, [r7, #4]
 800097c:	681b      	ldr	r3, [r3, #0]
 800097e:	613b      	str	r3, [r7, #16]
      temp &= ~(GPIO_MODER_MODER0 << (position * 2u));
 8000980:	697b      	ldr	r3, [r7, #20]
 8000982:	005b      	lsls	r3, r3, #1
 8000984:	2203      	movs	r2, #3
 8000986:	409a      	lsls	r2, r3
 8000988:	0013      	movs	r3, r2
 800098a:	43da      	mvns	r2, r3
 800098c:	693b      	ldr	r3, [r7, #16]
 800098e:	4013      	ands	r3, r2
 8000990:	613b      	str	r3, [r7, #16]
      temp |= ((GPIO_Init->Mode & GPIO_MODE) << (position * 2u));
 8000992:	683b      	ldr	r3, [r7, #0]
 8000994:	685b      	ldr	r3, [r3, #4]
 8000996:	2203      	movs	r2, #3
 8000998:	401a      	ands	r2, r3
 800099a:	697b      	ldr	r3, [r7, #20]
 800099c:	005b      	lsls	r3, r3, #1
 800099e:	409a      	lsls	r2, r3
 80009a0:	0013      	movs	r3, r2
 80009a2:	693a      	ldr	r2, [r7, #16]
 80009a4:	4313      	orrs	r3, r2
 80009a6:	613b      	str	r3, [r7, #16]
      GPIOx->MODER = temp;
 80009a8:	687b      	ldr	r3, [r7, #4]
 80009aa:	693a      	ldr	r2, [r7, #16]
 80009ac:	601a      	str	r2, [r3, #0]

      /*--------------------- EXTI Mode Configuration ------------------------*/
      /* Configure the External Interrupt or event for the current IO */
      if((GPIO_Init->Mode & EXTI_MODE) == EXTI_MODE)
 80009ae:	683b      	ldr	r3, [r7, #0]
 80009b0:	685a      	ldr	r2, [r3, #4]
 80009b2:	2380      	movs	r3, #128	; 0x80
 80009b4:	055b      	lsls	r3, r3, #21
 80009b6:	4013      	ands	r3, r2
 80009b8:	d100      	bne.n	80009bc <HAL_GPIO_Init+0x174>
 80009ba:	e09a      	b.n	8000af2 <HAL_GPIO_Init+0x2aa>
      {
        /* Enable SYSCFG Clock */
        __HAL_RCC_SYSCFG_CLK_ENABLE();
 80009bc:	4b54      	ldr	r3, [pc, #336]	; (8000b10 <HAL_GPIO_Init+0x2c8>)
 80009be:	699a      	ldr	r2, [r3, #24]
 80009c0:	4b53      	ldr	r3, [pc, #332]	; (8000b10 <HAL_GPIO_Init+0x2c8>)
 80009c2:	2101      	movs	r1, #1
 80009c4:	430a      	orrs	r2, r1
 80009c6:	619a      	str	r2, [r3, #24]
 80009c8:	4b51      	ldr	r3, [pc, #324]	; (8000b10 <HAL_GPIO_Init+0x2c8>)
 80009ca:	699b      	ldr	r3, [r3, #24]
 80009cc:	2201      	movs	r2, #1
 80009ce:	4013      	ands	r3, r2
 80009d0:	60bb      	str	r3, [r7, #8]
 80009d2:	68bb      	ldr	r3, [r7, #8]

        temp = SYSCFG->EXTICR[position >> 2u];
 80009d4:	4a4f      	ldr	r2, [pc, #316]	; (8000b14 <HAL_GPIO_Init+0x2cc>)
 80009d6:	697b      	ldr	r3, [r7, #20]
 80009d8:	089b      	lsrs	r3, r3, #2
 80009da:	3302      	adds	r3, #2
 80009dc:	009b      	lsls	r3, r3, #2
 80009de:	589b      	ldr	r3, [r3, r2]
 80009e0:	613b      	str	r3, [r7, #16]
        temp &= ~(0x0FuL << (4u * (position & 0x03u)));
 80009e2:	697b      	ldr	r3, [r7, #20]
 80009e4:	2203      	movs	r2, #3
 80009e6:	4013      	ands	r3, r2
 80009e8:	009b      	lsls	r3, r3, #2
 80009ea:	220f      	movs	r2, #15
 80009ec:	409a      	lsls	r2, r3
 80009ee:	0013      	movs	r3, r2
 80009f0:	43da      	mvns	r2, r3
 80009f2:	693b      	ldr	r3, [r7, #16]
 80009f4:	4013      	ands	r3, r2
 80009f6:	613b      	str	r3, [r7, #16]
        temp |= (GPIO_GET_INDEX(GPIOx) << (4u * (position & 0x03u)));
 80009f8:	687a      	ldr	r2, [r7, #4]
 80009fa:	2390      	movs	r3, #144	; 0x90
 80009fc:	05db      	lsls	r3, r3, #23
 80009fe:	429a      	cmp	r2, r3
 8000a00:	d013      	beq.n	8000a2a <HAL_GPIO_Init+0x1e2>
 8000a02:	687b      	ldr	r3, [r7, #4]
 8000a04:	4a44      	ldr	r2, [pc, #272]	; (8000b18 <HAL_GPIO_Init+0x2d0>)
 8000a06:	4293      	cmp	r3, r2
 8000a08:	d00d      	beq.n	8000a26 <HAL_GPIO_Init+0x1de>
 8000a0a:	687b      	ldr	r3, [r7, #4]
 8000a0c:	4a43      	ldr	r2, [pc, #268]	; (8000b1c <HAL_GPIO_Init+0x2d4>)
 8000a0e:	4293      	cmp	r3, r2
 8000a10:	d007      	beq.n	8000a22 <HAL_GPIO_Init+0x1da>
 8000a12:	687b      	ldr	r3, [r7, #4]
 8000a14:	4a42      	ldr	r2, [pc, #264]	; (8000b20 <HAL_GPIO_Init+0x2d8>)
 8000a16:	4293      	cmp	r3, r2
 8000a18:	d101      	bne.n	8000a1e <HAL_GPIO_Init+0x1d6>
 8000a1a:	2303      	movs	r3, #3
 8000a1c:	e006      	b.n	8000a2c <HAL_GPIO_Init+0x1e4>
 8000a1e:	2305      	movs	r3, #5
 8000a20:	e004      	b.n	8000a2c <HAL_GPIO_Init+0x1e4>
 8000a22:	2302      	movs	r3, #2
 8000a24:	e002      	b.n	8000a2c <HAL_GPIO_Init+0x1e4>
 8000a26:	2301      	movs	r3, #1
 8000a28:	e000      	b.n	8000a2c <HAL_GPIO_Init+0x1e4>
 8000a2a:	2300      	movs	r3, #0
 8000a2c:	697a      	ldr	r2, [r7, #20]
 8000a2e:	2103      	movs	r1, #3
 8000a30:	400a      	ands	r2, r1
 8000a32:	0092      	lsls	r2, r2, #2
 8000a34:	4093      	lsls	r3, r2
 8000a36:	693a      	ldr	r2, [r7, #16]
 8000a38:	4313      	orrs	r3, r2
 8000a3a:	613b      	str	r3, [r7, #16]
        SYSCFG->EXTICR[position >> 2u] = temp;
 8000a3c:	4935      	ldr	r1, [pc, #212]	; (8000b14 <HAL_GPIO_Init+0x2cc>)
 8000a3e:	697b      	ldr	r3, [r7, #20]
 8000a40:	089b      	lsrs	r3, r3, #2
 8000a42:	3302      	adds	r3, #2
 8000a44:	009b      	lsls	r3, r3, #2
 8000a46:	693a      	ldr	r2, [r7, #16]
 8000a48:	505a      	str	r2, [r3, r1]

        /* Clear EXTI line configuration */
        temp = EXTI->IMR;
 8000a4a:	4b36      	ldr	r3, [pc, #216]	; (8000b24 <HAL_GPIO_Init+0x2dc>)
 8000a4c:	681b      	ldr	r3, [r3, #0]
 8000a4e:	613b      	str	r3, [r7, #16]
        temp &= ~(iocurrent);
 8000a50:	68fb      	ldr	r3, [r7, #12]
 8000a52:	43da      	mvns	r2, r3
 8000a54:	693b      	ldr	r3, [r7, #16]
 8000a56:	4013      	ands	r3, r2
 8000a58:	613b      	str	r3, [r7, #16]
        if((GPIO_Init->Mode & GPIO_MODE_IT) == GPIO_MODE_IT)
 8000a5a:	683b      	ldr	r3, [r7, #0]
 8000a5c:	685a      	ldr	r2, [r3, #4]
 8000a5e:	2380      	movs	r3, #128	; 0x80
 8000a60:	025b      	lsls	r3, r3, #9
 8000a62:	4013      	ands	r3, r2
 8000a64:	d003      	beq.n	8000a6e <HAL_GPIO_Init+0x226>
        {
          temp |= iocurrent;
 8000a66:	693a      	ldr	r2, [r7, #16]
 8000a68:	68fb      	ldr	r3, [r7, #12]
 8000a6a:	4313      	orrs	r3, r2
 8000a6c:	613b      	str	r3, [r7, #16]
        }
        EXTI->IMR = temp;
 8000a6e:	4b2d      	ldr	r3, [pc, #180]	; (8000b24 <HAL_GPIO_Init+0x2dc>)
 8000a70:	693a      	ldr	r2, [r7, #16]
 8000a72:	601a      	str	r2, [r3, #0]

        temp = EXTI->EMR;
 8000a74:	4b2b      	ldr	r3, [pc, #172]	; (8000b24 <HAL_GPIO_Init+0x2dc>)
 8000a76:	685b      	ldr	r3, [r3, #4]
 8000a78:	613b      	str	r3, [r7, #16]
        temp &= ~(iocurrent);
 8000a7a:	68fb      	ldr	r3, [r7, #12]
 8000a7c:	43da      	mvns	r2, r3
 8000a7e:	693b      	ldr	r3, [r7, #16]
 8000a80:	4013      	ands	r3, r2
 8000a82:	613b      	str	r3, [r7, #16]
        if((GPIO_Init->Mode & GPIO_MODE_EVT) == GPIO_MODE_EVT)
 8000a84:	683b      	ldr	r3, [r7, #0]
 8000a86:	685a      	ldr	r2, [r3, #4]
 8000a88:	2380      	movs	r3, #128	; 0x80
 8000a8a:	029b      	lsls	r3, r3, #10
 8000a8c:	4013      	ands	r3, r2
 8000a8e:	d003      	beq.n	8000a98 <HAL_GPIO_Init+0x250>
        {
          temp |= iocurrent;
 8000a90:	693a      	ldr	r2, [r7, #16]
 8000a92:	68fb      	ldr	r3, [r7, #12]
 8000a94:	4313      	orrs	r3, r2
 8000a96:	613b      	str	r3, [r7, #16]
        }
        EXTI->EMR = temp;
 8000a98:	4b22      	ldr	r3, [pc, #136]	; (8000b24 <HAL_GPIO_Init+0x2dc>)
 8000a9a:	693a      	ldr	r2, [r7, #16]
 8000a9c:	605a      	str	r2, [r3, #4]

        /* Clear Rising Falling edge configuration */
        temp = EXTI->RTSR;
 8000a9e:	4b21      	ldr	r3, [pc, #132]	; (8000b24 <HAL_GPIO_Init+0x2dc>)
 8000aa0:	689b      	ldr	r3, [r3, #8]
 8000aa2:	613b      	str	r3, [r7, #16]
        temp &= ~(iocurrent);
 8000aa4:	68fb      	ldr	r3, [r7, #12]
 8000aa6:	43da      	mvns	r2, r3
 8000aa8:	693b      	ldr	r3, [r7, #16]
 8000aaa:	4013      	ands	r3, r2
 8000aac:	613b      	str	r3, [r7, #16]
        if((GPIO_Init->Mode & RISING_EDGE) == RISING_EDGE)
 8000aae:	683b      	ldr	r3, [r7, #0]
 8000ab0:	685a      	ldr	r2, [r3, #4]
 8000ab2:	2380      	movs	r3, #128	; 0x80
 8000ab4:	035b      	lsls	r3, r3, #13
 8000ab6:	4013      	ands	r3, r2
 8000ab8:	d003      	beq.n	8000ac2 <HAL_GPIO_Init+0x27a>
        {
          temp |= iocurrent;
 8000aba:	693a      	ldr	r2, [r7, #16]
 8000abc:	68fb      	ldr	r3, [r7, #12]
 8000abe:	4313      	orrs	r3, r2
 8000ac0:	613b      	str	r3, [r7, #16]
        }
        EXTI->RTSR = temp;
 8000ac2:	4b18      	ldr	r3, [pc, #96]	; (8000b24 <HAL_GPIO_Init+0x2dc>)
 8000ac4:	693a      	ldr	r2, [r7, #16]
 8000ac6:	609a      	str	r2, [r3, #8]

        temp = EXTI->FTSR;
 8000ac8:	4b16      	ldr	r3, [pc, #88]	; (8000b24 <HAL_GPIO_Init+0x2dc>)
 8000aca:	68db      	ldr	r3, [r3, #12]
 8000acc:	613b      	str	r3, [r7, #16]
        temp &= ~(iocurrent);
 8000ace:	68fb      	ldr	r3, [r7, #12]
 8000ad0:	43da      	mvns	r2, r3
 8000ad2:	693b      	ldr	r3, [r7, #16]
 8000ad4:	4013      	ands	r3, r2
 8000ad6:	613b      	str	r3, [r7, #16]
        if((GPIO_Init->Mode & FALLING_EDGE) == FALLING_EDGE)
 8000ad8:	683b      	ldr	r3, [r7, #0]
 8000ada:	685a      	ldr	r2, [r3, #4]
 8000adc:	2380      	movs	r3, #128	; 0x80
 8000ade:	039b      	lsls	r3, r3, #14
 8000ae0:	4013      	ands	r3, r2
 8000ae2:	d003      	beq.n	8000aec <HAL_GPIO_Init+0x2a4>
        {
          temp |= iocurrent;
 8000ae4:	693a      	ldr	r2, [r7, #16]
 8000ae6:	68fb      	ldr	r3, [r7, #12]
 8000ae8:	4313      	orrs	r3, r2
 8000aea:	613b      	str	r3, [r7, #16]
        }
        EXTI->FTSR = temp;
 8000aec:	4b0d      	ldr	r3, [pc, #52]	; (8000b24 <HAL_GPIO_Init+0x2dc>)
 8000aee:	693a      	ldr	r2, [r7, #16]
 8000af0:	60da      	str	r2, [r3, #12]
      }
    }

    position++;
 8000af2:	697b      	ldr	r3, [r7, #20]
 8000af4:	3301      	adds	r3, #1
 8000af6:	617b      	str	r3, [r7, #20]
  while (((GPIO_Init->Pin) >> position) != 0x00u)
 8000af8:	683b      	ldr	r3, [r7, #0]
 8000afa:	681a      	ldr	r2, [r3, #0]
 8000afc:	697b      	ldr	r3, [r7, #20]
 8000afe:	40da      	lsrs	r2, r3
 8000b00:	1e13      	subs	r3, r2, #0
 8000b02:	d000      	beq.n	8000b06 <HAL_GPIO_Init+0x2be>
 8000b04:	e6a8      	b.n	8000858 <HAL_GPIO_Init+0x10>
  } 
}
 8000b06:	46c0      	nop			; (mov r8, r8)
 8000b08:	46bd      	mov	sp, r7
 8000b0a:	b006      	add	sp, #24
 8000b0c:	bd80      	pop	{r7, pc}
 8000b0e:	46c0      	nop			; (mov r8, r8)
 8000b10:	40021000 	.word	0x40021000
 8000b14:	40010000 	.word	0x40010000
 8000b18:	48000400 	.word	0x48000400
 8000b1c:	48000800 	.word	0x48000800
 8000b20:	48000c00 	.word	0x48000c00
 8000b24:	40010400 	.word	0x40010400

08000b28 <HAL_GPIO_DeInit>:
  * @param  GPIO_Pin specifies the port bit to be written.
  *         This parameter can be one of GPIO_PIN_x where x can be (0..15).
  * @retval None
  */
void HAL_GPIO_DeInit(GPIO_TypeDef  *GPIOx, uint32_t GPIO_Pin)
{
 8000b28:	b580      	push	{r7, lr}
 8000b2a:	b086      	sub	sp, #24
 8000b2c:	af00      	add	r7, sp, #0
 8000b2e:	6078      	str	r0, [r7, #4]
 8000b30:	6039      	str	r1, [r7, #0]
  uint32_t position = 0x00u;
 8000b32:	2300      	movs	r3, #0
 8000b34:	617b      	str	r3, [r7, #20]
  /* Check the parameters */
  assert_param(IS_GPIO_ALL_INSTANCE(GPIOx));
  assert_param(IS_GPIO_PIN(GPIO_Pin));

  /* Configure the port pins */
  while ((GPIO_Pin >> position) != 0x00u)
 8000b36:	e0b1      	b.n	8000c9c <HAL_GPIO_DeInit+0x174>
  {
    /* Get current io position */
    iocurrent = (GPIO_Pin) & (1uL << position);
 8000b38:	2201      	movs	r2, #1
 8000b3a:	697b      	ldr	r3, [r7, #20]
 8000b3c:	409a      	lsls	r2, r3
 8000b3e:	683b      	ldr	r3, [r7, #0]
 8000b40:	4013      	ands	r3, r2
 8000b42:	613b      	str	r3, [r7, #16]

    if (iocurrent != 0x00u)
 8000b44:	693b      	ldr	r3, [r7, #16]
 8000b46:	2b00      	cmp	r3, #0
 8000b48:	d100      	bne.n	8000b4c <HAL_GPIO_DeInit+0x24>
 8000b4a:	e0a4      	b.n	8000c96 <HAL_GPIO_DeInit+0x16e>
    {
      /*------------------------- EXTI Mode Configuration --------------------*/
      /* Clear the External Interrupt or Event for the current IO */

      tmp = SYSCFG->EXTICR[position >> 2u];
 8000b4c:	4a58      	ldr	r2, [pc, #352]	; (8000cb0 <HAL_GPIO_DeInit+0x188>)
 8000b4e:	697b      	ldr	r3, [r7, #20]
 8000b50:	089b      	lsrs	r3, r3, #2
 8000b52:	3302      	adds	r3, #2
 8000b54:	009b      	lsls	r3, r3, #2
 8000b56:	589b      	ldr	r3, [r3, r2]
 8000b58:	60fb      	str	r3, [r7, #12]
      tmp &= (0x0FuL << (4u * (position & 0x03u)));
 8000b5a:	697b      	ldr	r3, [r7, #20]
 8000b5c:	2203      	movs	r2, #3
 8000b5e:	4013      	ands	r3, r2
 8000b60:	009b      	lsls	r3, r3, #2
 8000b62:	220f      	movs	r2, #15
 8000b64:	409a      	lsls	r2, r3
 8000b66:	68fb      	ldr	r3, [r7, #12]
 8000b68:	4013      	ands	r3, r2
 8000b6a:	60fb      	str	r3, [r7, #12]
      if (tmp == (GPIO_GET_INDEX(GPIOx) << (4u * (position & 0x03u))))
 8000b6c:	687a      	ldr	r2, [r7, #4]
 8000b6e:	2390      	movs	r3, #144	; 0x90
 8000b70:	05db      	lsls	r3, r3, #23
 8000b72:	429a      	cmp	r2, r3
 8000b74:	d013      	beq.n	8000b9e <HAL_GPIO_DeInit+0x76>
 8000b76:	687b      	ldr	r3, [r7, #4]
 8000b78:	4a4e      	ldr	r2, [pc, #312]	; (8000cb4 <HAL_GPIO_DeInit+0x18c>)
 8000b7a:	4293      	cmp	r3, r2
 8000b7c:	d00d      	beq.n	8000b9a <HAL_GPIO_DeInit+0x72>
 8000b7e:	687b      	ldr	r3, [r7, #4]
 8000b80:	4a4d      	ldr	r2, [pc, #308]	; (8000cb8 <HAL_GPIO_DeInit+0x190>)
 8000b82:	4293      	cmp	r3, r2
 8000b84:	d007      	beq.n	8000b96 <HAL_GPIO_DeInit+0x6e>
 8000b86:	687b      	ldr	r3, [r7, #4]
 8000b88:	4a4c      	ldr	r2, [pc, #304]	; (8000cbc <HAL_GPIO_DeInit+0x194>)
 8000b8a:	4293      	cmp	r3, r2
 8000b8c:	d101      	bne.n	8000b92 <HAL_GPIO_DeInit+0x6a>
 8000b8e:	2303      	movs	r3, #3
 8000b90:	e006      	b.n	8000ba0 <HAL_GPIO_DeInit+0x78>
 8000b92:	2305      	movs	r3, #5
 8000b94:	e004      	b.n	8000ba0 <HAL_GPIO_DeInit+0x78>
 8000b96:	2302      	movs	r3, #2
 8000b98:	e002      	b.n	8000ba0 <HAL_GPIO_DeInit+0x78>
 8000b9a:	2301      	movs	r3, #1
 8000b9c:	e000      	b.n	8000ba0 <HAL_GPIO_DeInit+0x78>
 8000b9e:	2300      	movs	r3, #0
 8000ba0:	697a      	ldr	r2, [r7, #20]
 8000ba2:	2103      	movs	r1, #3
 8000ba4:	400a      	ands	r2, r1
 8000ba6:	0092      	lsls	r2, r2, #2
 8000ba8:	4093      	lsls	r3, r2
 8000baa:	68fa      	ldr	r2, [r7, #12]
 8000bac:	429a      	cmp	r2, r3
 8000bae:	d132      	bne.n	8000c16 <HAL_GPIO_DeInit+0xee>
      {
        /* Clear EXTI line configuration */
        EXTI->IMR &= ~((uint32_t)iocurrent);
 8000bb0:	4b43      	ldr	r3, [pc, #268]	; (8000cc0 <HAL_GPIO_DeInit+0x198>)
 8000bb2:	681a      	ldr	r2, [r3, #0]
 8000bb4:	693b      	ldr	r3, [r7, #16]
 8000bb6:	43d9      	mvns	r1, r3
 8000bb8:	4b41      	ldr	r3, [pc, #260]	; (8000cc0 <HAL_GPIO_DeInit+0x198>)
 8000bba:	400a      	ands	r2, r1
 8000bbc:	601a      	str	r2, [r3, #0]
        EXTI->EMR &= ~((uint32_t)iocurrent);
 8000bbe:	4b40      	ldr	r3, [pc, #256]	; (8000cc0 <HAL_GPIO_DeInit+0x198>)
 8000bc0:	685a      	ldr	r2, [r3, #4]
 8000bc2:	693b      	ldr	r3, [r7, #16]
 8000bc4:	43d9      	mvns	r1, r3
 8000bc6:	4b3e      	ldr	r3, [pc, #248]	; (8000cc0 <HAL_GPIO_DeInit+0x198>)
 8000bc8:	400a      	ands	r2, r1
 8000bca:	605a      	str	r2, [r3, #4]
        
        /* Clear Rising Falling edge configuration */
        EXTI->RTSR &= ~((uint32_t)iocurrent);
 8000bcc:	4b3c      	ldr	r3, [pc, #240]	; (8000cc0 <HAL_GPIO_DeInit+0x198>)
 8000bce:	689a      	ldr	r2, [r3, #8]
 8000bd0:	693b      	ldr	r3, [r7, #16]
 8000bd2:	43d9      	mvns	r1, r3
 8000bd4:	4b3a      	ldr	r3, [pc, #232]	; (8000cc0 <HAL_GPIO_DeInit+0x198>)
 8000bd6:	400a      	ands	r2, r1
 8000bd8:	609a      	str	r2, [r3, #8]
        EXTI->FTSR &= ~((uint32_t)iocurrent);
 8000bda:	4b39      	ldr	r3, [pc, #228]	; (8000cc0 <HAL_GPIO_DeInit+0x198>)
 8000bdc:	68da      	ldr	r2, [r3, #12]
 8000bde:	693b      	ldr	r3, [r7, #16]
 8000be0:	43d9      	mvns	r1, r3
 8000be2:	4b37      	ldr	r3, [pc, #220]	; (8000cc0 <HAL_GPIO_DeInit+0x198>)
 8000be4:	400a      	ands	r2, r1
 8000be6:	60da      	str	r2, [r3, #12]

        /* Configure the External Interrupt or event for the current IO */
        tmp = 0x0FuL << (4u * (position & 0x03u));
 8000be8:	697b      	ldr	r3, [r7, #20]
 8000bea:	2203      	movs	r2, #3
 8000bec:	4013      	ands	r3, r2
 8000bee:	009b      	lsls	r3, r3, #2
 8000bf0:	220f      	movs	r2, #15
 8000bf2:	409a      	lsls	r2, r3
 8000bf4:	0013      	movs	r3, r2
 8000bf6:	60fb      	str	r3, [r7, #12]
        SYSCFG->EXTICR[position >> 2u] &= ~tmp;
 8000bf8:	4a2d      	ldr	r2, [pc, #180]	; (8000cb0 <HAL_GPIO_DeInit+0x188>)
 8000bfa:	697b      	ldr	r3, [r7, #20]
 8000bfc:	089b      	lsrs	r3, r3, #2
 8000bfe:	3302      	adds	r3, #2
 8000c00:	009b      	lsls	r3, r3, #2
 8000c02:	589a      	ldr	r2, [r3, r2]
 8000c04:	68fb      	ldr	r3, [r7, #12]
 8000c06:	43d9      	mvns	r1, r3
 8000c08:	4829      	ldr	r0, [pc, #164]	; (8000cb0 <HAL_GPIO_DeInit+0x188>)
 8000c0a:	697b      	ldr	r3, [r7, #20]
 8000c0c:	089b      	lsrs	r3, r3, #2
 8000c0e:	400a      	ands	r2, r1
 8000c10:	3302      	adds	r3, #2
 8000c12:	009b      	lsls	r3, r3, #2
 8000c14:	501a      	str	r2, [r3, r0]
      }

      /*------------------------- GPIO Mode Configuration --------------------*/
      /* Configure IO Direction in Input Floating Mode */
      GPIOx->MODER &= ~(GPIO_MODER_MODER0 << (position * 2u));
 8000c16:	687b      	ldr	r3, [r7, #4]
 8000c18:	681b      	ldr	r3, [r3, #0]
 8000c1a:	697a      	ldr	r2, [r7, #20]
 8000c1c:	0052      	lsls	r2, r2, #1
 8000c1e:	2103      	movs	r1, #3
 8000c20:	4091      	lsls	r1, r2
 8000c22:	000a      	movs	r2, r1
 8000c24:	43d2      	mvns	r2, r2
 8000c26:	401a      	ands	r2, r3
 8000c28:	687b      	ldr	r3, [r7, #4]
 8000c2a:	601a      	str	r2, [r3, #0]

      /* Configure the default Alternate Function in current IO */
      GPIOx->AFR[position >> 3u] &= ~(0xFu << ((uint32_t)(position & 0x07u) * 4u)) ;
 8000c2c:	697b      	ldr	r3, [r7, #20]
 8000c2e:	08da      	lsrs	r2, r3, #3
 8000c30:	687b      	ldr	r3, [r7, #4]
 8000c32:	3208      	adds	r2, #8
 8000c34:	0092      	lsls	r2, r2, #2
 8000c36:	58d3      	ldr	r3, [r2, r3]
 8000c38:	697a      	ldr	r2, [r7, #20]
 8000c3a:	2107      	movs	r1, #7
 8000c3c:	400a      	ands	r2, r1
 8000c3e:	0092      	lsls	r2, r2, #2
 8000c40:	210f      	movs	r1, #15
 8000c42:	4091      	lsls	r1, r2
 8000c44:	000a      	movs	r2, r1
 8000c46:	43d1      	mvns	r1, r2
 8000c48:	697a      	ldr	r2, [r7, #20]
 8000c4a:	08d2      	lsrs	r2, r2, #3
 8000c4c:	4019      	ands	r1, r3
 8000c4e:	687b      	ldr	r3, [r7, #4]
 8000c50:	3208      	adds	r2, #8
 8000c52:	0092      	lsls	r2, r2, #2
 8000c54:	50d1      	str	r1, [r2, r3]

      /* Deactivate the Pull-up and Pull-down resistor for the current IO */
      GPIOx->PUPDR &= ~(GPIO_PUPDR_PUPDR0 << (position * 2u));
 8000c56:	687b      	ldr	r3, [r7, #4]
 8000c58:	68db      	ldr	r3, [r3, #12]
 8000c5a:	697a      	ldr	r2, [r7, #20]
 8000c5c:	0052      	lsls	r2, r2, #1
 8000c5e:	2103      	movs	r1, #3
 8000c60:	4091      	lsls	r1, r2
 8000c62:	000a      	movs	r2, r1
 8000c64:	43d2      	mvns	r2, r2
 8000c66:	401a      	ands	r2, r3
 8000c68:	687b      	ldr	r3, [r7, #4]
 8000c6a:	60da      	str	r2, [r3, #12]

      /* Configure the default value IO Output Type */
      GPIOx->OTYPER  &= ~(GPIO_OTYPER_OT_0 << position) ;
 8000c6c:	687b      	ldr	r3, [r7, #4]
 8000c6e:	685b      	ldr	r3, [r3, #4]
 8000c70:	2101      	movs	r1, #1
 8000c72:	697a      	ldr	r2, [r7, #20]
 8000c74:	4091      	lsls	r1, r2
 8000c76:	000a      	movs	r2, r1
 8000c78:	43d2      	mvns	r2, r2
 8000c7a:	401a      	ands	r2, r3
 8000c7c:	687b      	ldr	r3, [r7, #4]
 8000c7e:	605a      	str	r2, [r3, #4]

      /* Configure the default value for IO Speed */
      GPIOx->OSPEEDR &= ~(GPIO_OSPEEDER_OSPEEDR0 << (position * 2u));
 8000c80:	687b      	ldr	r3, [r7, #4]
 8000c82:	689b      	ldr	r3, [r3, #8]
 8000c84:	697a      	ldr	r2, [r7, #20]
 8000c86:	0052      	lsls	r2, r2, #1
 8000c88:	2103      	movs	r1, #3
 8000c8a:	4091      	lsls	r1, r2
 8000c8c:	000a      	movs	r2, r1
 8000c8e:	43d2      	mvns	r2, r2
 8000c90:	401a      	ands	r2, r3
 8000c92:	687b      	ldr	r3, [r7, #4]
 8000c94:	609a      	str	r2, [r3, #8]

    }

    position++;
 8000c96:	697b      	ldr	r3, [r7, #20]
 8000c98:	3301      	adds	r3, #1
 8000c9a:	617b      	str	r3, [r7, #20]
  while ((GPIO_Pin >> position) != 0x00u)
 8000c9c:	683a      	ldr	r2, [r7, #0]
 8000c9e:	697b      	ldr	r3, [r7, #20]
 8000ca0:	40da      	lsrs	r2, r3
 8000ca2:	1e13      	subs	r3, r2, #0
 8000ca4:	d000      	beq.n	8000ca8 <HAL_GPIO_DeInit+0x180>
 8000ca6:	e747      	b.n	8000b38 <HAL_GPIO_DeInit+0x10>
  }
}
 8000ca8:	46c0      	nop			; (mov r8, r8)
 8000caa:	46bd      	mov	sp, r7
 8000cac:	b006      	add	sp, #24
 8000cae:	bd80      	pop	{r7, pc}
 8000cb0:	40010000 	.word	0x40010000
 8000cb4:	48000400 	.word	0x48000400
 8000cb8:	48000800 	.word	0x48000800
 8000cbc:	48000c00 	.word	0x48000c00
 8000cc0:	40010400 	.word	0x40010400

08000cc4 <HAL_GPIO_WritePin>:
  *            @arg GPIO_PIN_RESET: to clear the port pin
  *            @arg GPIO_PIN_SET: to set the port pin
  * @retval None
  */
void HAL_GPIO_WritePin(GPIO_TypeDef* GPIOx, uint16_t GPIO_Pin, GPIO_PinState PinState)
{
 8000cc4:	b580      	push	{r7, lr}
 8000cc6:	b082      	sub	sp, #8
 8000cc8:	af00      	add	r7, sp, #0
 8000cca:	6078      	str	r0, [r7, #4]
 8000ccc:	0008      	movs	r0, r1
 8000cce:	0011      	movs	r1, r2
 8000cd0:	1cbb      	adds	r3, r7, #2
 8000cd2:	1c02      	adds	r2, r0, #0
 8000cd4:	801a      	strh	r2, [r3, #0]
 8000cd6:	1c7b      	adds	r3, r7, #1
 8000cd8:	1c0a      	adds	r2, r1, #0
 8000cda:	701a      	strb	r2, [r3, #0]
  /* Check the parameters */
  assert_param(IS_GPIO_PIN(GPIO_Pin));
  assert_param(IS_GPIO_PIN_ACTION(PinState));

  if (PinState != GPIO_PIN_RESET)
 8000cdc:	1c7b      	adds	r3, r7, #1
 8000cde:	781b      	ldrb	r3, [r3, #0]
 8000ce0:	2b00      	cmp	r3, #0
 8000ce2:	d004      	beq.n	8000cee <HAL_GPIO_WritePin+0x2a>
  {
    GPIOx->BSRR = (uint32_t)GPIO_Pin;
 8000ce4:	1cbb      	adds	r3, r7, #2
 8000ce6:	881a      	ldrh	r2, [r3, #0]
 8000ce8:	687b      	ldr	r3, [r7, #4]
 8000cea:	619a      	str	r2, [r3, #24]
  }
  else
  {
    GPIOx->BRR = (uint32_t)GPIO_Pin;
  }
}
 8000cec:	e003      	b.n	8000cf6 <HAL_GPIO_WritePin+0x32>
    GPIOx->BRR = (uint32_t)GPIO_Pin;
 8000cee:	1cbb      	adds	r3, r7, #2
 8000cf0:	881a      	ldrh	r2, [r3, #0]
 8000cf2:	687b      	ldr	r3, [r7, #4]
 8000cf4:	629a      	str	r2, [r3, #40]	; 0x28
}
 8000cf6:	46c0      	nop			; (mov r8, r8)
 8000cf8:	46bd      	mov	sp, r7
 8000cfa:	b002      	add	sp, #8
 8000cfc:	bd80      	pop	{r7, pc}
	...

08000d00 <HAL_RCC_OscConfig>:
  *         supported by this macro. User should request a transition to HSE Off
  *         first and then HSE On or HSE Bypass.
  * @retval HAL status
  */
HAL_StatusTypeDef HAL_RCC_OscConfig(RCC_OscInitTypeDef  *RCC_OscInitStruct)
{
 8000d00:	b580      	push	{r7, lr}
 8000d02:	b088      	sub	sp, #32
 8000d04:	af00      	add	r7, sp, #0
 8000d06:	6078      	str	r0, [r7, #4]
  uint32_t tickstart;
  uint32_t pll_config;
  uint32_t pll_config2;

  /* Check Null pointer */
  if(RCC_OscInitStruct == NULL)
 8000d08:	687b      	ldr	r3, [r7, #4]
 8000d0a:	2b00      	cmp	r3, #0
 8000d0c:	d101      	bne.n	8000d12 <HAL_RCC_OscConfig+0x12>
  {
    return HAL_ERROR;
 8000d0e:	2301      	movs	r3, #1
 8000d10:	e305      	b.n	800131e <HAL_RCC_OscConfig+0x61e>

  /* Check the parameters */
  assert_param(IS_RCC_OSCILLATORTYPE(RCC_OscInitStruct->OscillatorType));

  /*------------------------------- HSE Configuration ------------------------*/ 
  if(((RCC_OscInitStruct->OscillatorType) & RCC_OSCILLATORTYPE_HSE) == RCC_OSCILLATORTYPE_HSE)
 8000d12:	687b      	ldr	r3, [r7, #4]
 8000d14:	681b      	ldr	r3, [r3, #0]
 8000d16:	2201      	movs	r2, #1
 8000d18:	4013      	ands	r3, r2
 8000d1a:	d100      	bne.n	8000d1e <HAL_RCC_OscConfig+0x1e>
 8000d1c:	e08d      	b.n	8000e3a <HAL_RCC_OscConfig+0x13a>
  {
    /* Check the parameters */
    assert_param(IS_RCC_HSE(RCC_OscInitStruct->HSEState));

    /* When the HSE is used as system clock or clock source for PLL in these cases it is not allowed to be disabled */
    if((__HAL_RCC_GET_SYSCLK_SOURCE() == RCC_SYSCLKSOURCE_STATUS_HSE) 
 8000d1e:	4bc5      	ldr	r3, [pc, #788]	; (8001034 <HAL_RCC_OscConfig+0x334>)
 8000d20:	685b      	ldr	r3, [r3, #4]
 8000d22:	220c      	movs	r2, #12
 8000d24:	4013      	ands	r3, r2
 8000d26:	2b04      	cmp	r3, #4
 8000d28:	d00e      	beq.n	8000d48 <HAL_RCC_OscConfig+0x48>
       || ((__HAL_RCC_GET_SYSCLK_SOURCE() == RCC_SYSCLKSOURCE_STATUS_PLLCLK) && (__HAL_RCC_GET_PLL_OSCSOURCE() == RCC_PLLSOURCE_HSE)))
 8000d2a:	4bc2      	ldr	r3, [pc, #776]	; (8001034 <HAL_RCC_OscConfig+0x334>)
 8000d2c:	685b      	ldr	r3, [r3, #4]
 8000d2e:	220c      	movs	r2, #12
 8000d30:	4013      	ands	r3, r2
 8000d32:	2b08      	cmp	r3, #8
 8000d34:	d116      	bne.n	8000d64 <HAL_RCC_OscConfig+0x64>
 8000d36:	4bbf      	ldr	r3, [pc, #764]	; (8001034 <HAL_RCC_OscConfig+0x334>)
 8000d38:	685a      	ldr	r2, [r3, #4]
 8000d3a:	23c0      	movs	r3, #192	; 0xc0
 8000d3c:	025b      	lsls	r3, r3, #9
 8000d3e:	401a      	ands	r2, r3
 8000d40:	2380      	movs	r3, #128	; 0x80
 8000d42:	025b      	lsls	r3, r3, #9
 8000d44:	429a      	cmp	r2, r3
 8000d46:	d10d      	bne.n	8000d64 <HAL_RCC_OscConfig+0x64>
    {
      if((__HAL_RCC_GET_FLAG(RCC_FLAG_HSERDY) != RESET) && (RCC_OscInitStruct->HSEState == RCC_HSE_OFF))
 8000d48:	4bba      	ldr	r3, [pc, #744]	; (8001034 <HAL_RCC_OscConfig+0x334>)
 8000d4a:	681a      	ldr	r2, [r3, #0]
 8000d4c:	2380      	movs	r3, #128	; 0x80
 8000d4e:	029b      	lsls	r3, r3, #10
 8000d50:	4013      	ands	r3, r2
 8000d52:	d100      	bne.n	8000d56 <HAL_RCC_OscConfig+0x56>
 8000d54:	e070      	b.n	8000e38 <HAL_RCC_OscConfig+0x138>
 8000d56:	687b      	ldr	r3, [r7, #4]
 8000d58:	685b      	ldr	r3, [r3, #4]
 8000d5a:	2b00      	cmp	r3, #0
 8000d5c:	d000      	beq.n	8000d60 <HAL_RCC_OscConfig+0x60>
 8000d5e:	e06b      	b.n	8000e38 <HAL_RCC_OscConfig+0x138>
      {
        return HAL_ERROR;
 8000d60:	2301      	movs	r3, #1
 8000d62:	e2dc      	b.n	800131e <HAL_RCC_OscConfig+0x61e>
      }
    }
    else
    {
      /* Set the new HSE configuration ---------------------------------------*/
      __HAL_RCC_HSE_CONFIG(RCC_OscInitStruct->HSEState);
 8000d64:	687b      	ldr	r3, [r7, #4]
 8000d66:	685b      	ldr	r3, [r3, #4]
 8000d68:	2b01      	cmp	r3, #1
 8000d6a:	d107      	bne.n	8000d7c <HAL_RCC_OscConfig+0x7c>
 8000d6c:	4bb1      	ldr	r3, [pc, #708]	; (8001034 <HAL_RCC_OscConfig+0x334>)
 8000d6e:	681a      	ldr	r2, [r3, #0]
 8000d70:	4bb0      	ldr	r3, [pc, #704]	; (8001034 <HAL_RCC_OscConfig+0x334>)
 8000d72:	2180      	movs	r1, #128	; 0x80
 8000d74:	0249      	lsls	r1, r1, #9
 8000d76:	430a      	orrs	r2, r1
 8000d78:	601a      	str	r2, [r3, #0]
 8000d7a:	e02f      	b.n	8000ddc <HAL_RCC_OscConfig+0xdc>
 8000d7c:	687b      	ldr	r3, [r7, #4]
 8000d7e:	685b      	ldr	r3, [r3, #4]
 8000d80:	2b00      	cmp	r3, #0
 8000d82:	d10c      	bne.n	8000d9e <HAL_RCC_OscConfig+0x9e>
 8000d84:	4bab      	ldr	r3, [pc, #684]	; (8001034 <HAL_RCC_OscConfig+0x334>)
 8000d86:	681a      	ldr	r2, [r3, #0]
 8000d88:	4baa      	ldr	r3, [pc, #680]	; (8001034 <HAL_RCC_OscConfig+0x334>)
 8000d8a:	49ab      	ldr	r1, [pc, #684]	; (8001038 <HAL_RCC_OscConfig+0x338>)
 8000d8c:	400a      	ands	r2, r1
 8000d8e:	601a      	str	r2, [r3, #0]
 8000d90:	4ba8      	ldr	r3, [pc, #672]	; (8001034 <HAL_RCC_OscConfig+0x334>)
 8000d92:	681a      	ldr	r2, [r3, #0]
 8000d94:	4ba7      	ldr	r3, [pc, #668]	; (8001034 <HAL_RCC_OscConfig+0x334>)
 8000d96:	49a9      	ldr	r1, [pc, #676]	; (800103c <HAL_RCC_OscConfig+0x33c>)
 8000d98:	400a      	ands	r2, r1
 8000d9a:	601a      	str	r2, [r3, #0]
 8000d9c:	e01e      	b.n	8000ddc <HAL_RCC_OscConfig+0xdc>
 8000d9e:	687b      	ldr	r3, [r7, #4]
 8000da0:	685b      	ldr	r3, [r3, #4]
 8000da2:	2b05      	cmp	r3, #5
 8000da4:	d10e      	bne.n	8000dc4 <HAL_RCC_OscConfig+0xc4>
 8000da6:	4ba3      	ldr	r3, [pc, #652]	; (8001034 <HAL_RCC_OscConfig+0x334>)
 8000da8:	681a      	ldr	r2, [r3, #0]
 8000daa:	4ba2      	ldr	r3, [pc, #648]	; (8001034 <HAL_RCC_OscConfig+0x334>)
 8000dac:	2180      	movs	r1, #128	; 0x80
 8000dae:	02c9      	lsls	r1, r1, #11
 8000db0:	430a      	orrs	r2, r1
 8000db2:	601a      	str	r2, [r3, #0]
 8000db4:	4b9f      	ldr	r3, [pc, #636]	; (8001034 <HAL_RCC_OscConfig+0x334>)
 8000db6:	681a      	ldr	r2, [r3, #0]
 8000db8:	4b9e      	ldr	r3, [pc, #632]	; (8001034 <HAL_RCC_OscConfig+0x334>)
 8000dba:	2180      	movs	r1, #128	; 0x80
 8000dbc:	0249      	lsls	r1, r1, #9
 8000dbe:	430a      	orrs	r2, r1
 8000dc0:	601a      	str	r2, [r3, #0]
 8000dc2:	e00b      	b.n	8000ddc <HAL_RCC_OscConfig+0xdc>
 8000dc4:	4b9b      	ldr	r3, [pc, #620]	; (8001034 <HAL_RCC_OscConfig+0x334>)
 8000dc6:	681a      	ldr	r2, [r3, #0]
 8000dc8:	4b9a      	ldr	r3, [pc, #616]	; (8001034 <HAL_RCC_OscConfig+0x334>)
 8000dca:	499b      	ldr	r1, [pc, #620]	; (8001038 <HAL_RCC_OscConfig+0x338>)
 8000dcc:	400a      	ands	r2, r1
 8000dce:	601a      	str	r2, [r3, #0]
 8000dd0:	4b98      	ldr	r3, [pc, #608]	; (8001034 <HAL_RCC_OscConfig+0x334>)
 8000dd2:	681a      	ldr	r2, [r3, #0]
 8000dd4:	4b97      	ldr	r3, [pc, #604]	; (8001034 <HAL_RCC_OscConfig+0x334>)
 8000dd6:	4999      	ldr	r1, [pc, #612]	; (800103c <HAL_RCC_OscConfig+0x33c>)
 8000dd8:	400a      	ands	r2, r1
 8000dda:	601a      	str	r2, [r3, #0]
      

       /* Check the HSE State */
      if(RCC_OscInitStruct->HSEState != RCC_HSE_OFF)
 8000ddc:	687b      	ldr	r3, [r7, #4]
 8000dde:	685b      	ldr	r3, [r3, #4]
 8000de0:	2b00      	cmp	r3, #0
 8000de2:	d014      	beq.n	8000e0e <HAL_RCC_OscConfig+0x10e>
      {
        /* Get Start Tick */
        tickstart = HAL_GetTick();
 8000de4:	f7ff fc48 	bl	8000678 <HAL_GetTick>
 8000de8:	0003      	movs	r3, r0
 8000dea:	61bb      	str	r3, [r7, #24]
        
        /* Wait till HSE is ready */
        while(__HAL_RCC_GET_FLAG(RCC_FLAG_HSERDY) == RESET)
 8000dec:	e008      	b.n	8000e00 <HAL_RCC_OscConfig+0x100>
        {
          if((HAL_GetTick() - tickstart ) > HSE_TIMEOUT_VALUE)
 8000dee:	f7ff fc43 	bl	8000678 <HAL_GetTick>
 8000df2:	0002      	movs	r2, r0
 8000df4:	69bb      	ldr	r3, [r7, #24]
 8000df6:	1ad3      	subs	r3, r2, r3
 8000df8:	2b64      	cmp	r3, #100	; 0x64
 8000dfa:	d901      	bls.n	8000e00 <HAL_RCC_OscConfig+0x100>
          {
            return HAL_TIMEOUT;
 8000dfc:	2303      	movs	r3, #3
 8000dfe:	e28e      	b.n	800131e <HAL_RCC_OscConfig+0x61e>
        while(__HAL_RCC_GET_FLAG(RCC_FLAG_HSERDY) == RESET)
 8000e00:	4b8c      	ldr	r3, [pc, #560]	; (8001034 <HAL_RCC_OscConfig+0x334>)
 8000e02:	681a      	ldr	r2, [r3, #0]
 8000e04:	2380      	movs	r3, #128	; 0x80
 8000e06:	029b      	lsls	r3, r3, #10
 8000e08:	4013      	ands	r3, r2
 8000e0a:	d0f0      	beq.n	8000dee <HAL_RCC_OscConfig+0xee>
 8000e0c:	e015      	b.n	8000e3a <HAL_RCC_OscConfig+0x13a>
        }
      }
      else
      {
        /* Get Start Tick */
        tickstart = HAL_GetTick();
 8000e0e:	f7ff fc33 	bl	8000678 <HAL_GetTick>
 8000e12:	0003      	movs	r3, r0
 8000e14:	61bb      	str	r3, [r7, #24]
        
        /* Wait till HSE is disabled */
        while(__HAL_RCC_GET_FLAG(RCC_FLAG_HSERDY) != RESET)
 8000e16:	e008      	b.n	8000e2a <HAL_RCC_OscConfig+0x12a>
        {
           if((HAL_GetTick() - tickstart ) > HSE_TIMEOUT_VALUE)
 8000e18:	f7ff fc2e 	bl	8000678 <HAL_GetTick>
 8000e1c:	0002      	movs	r2, r0
 8000e1e:	69bb      	ldr	r3, [r7, #24]
 8000e20:	1ad3      	subs	r3, r2, r3
 8000e22:	2b64      	cmp	r3, #100	; 0x64
 8000e24:	d901      	bls.n	8000e2a <HAL_RCC_OscConfig+0x12a>
          {
            return HAL_TIMEOUT;
 8000e26:	2303      	movs	r3, #3
 8000e28:	e279      	b.n	800131e <HAL_RCC_OscConfig+0x61e>
        while(__HAL_RCC_GET_FLAG(RCC_FLAG_HSERDY) != RESET)
 8000e2a:	4b82      	ldr	r3, [pc, #520]	; (8001034 <HAL_RCC_OscConfig+0x334>)
 8000e2c:	681a      	ldr	r2, [r3, #0]
 8000e2e:	2380      	movs	r3, #128	; 0x80
 8000e30:	029b      	lsls	r3, r3, #10
 8000e32:	4013      	ands	r3, r2
 8000e34:	d1f0      	bne.n	8000e18 <HAL_RCC_OscConfig+0x118>
 8000e36:	e000      	b.n	8000e3a <HAL_RCC_OscConfig+0x13a>
      if((__HAL_RCC_GET_FLAG(RCC_FLAG_HSERDY) != RESET) && (RCC_OscInitStruct->HSEState == RCC_HSE_OFF))
 8000e38:	46c0      	nop			; (mov r8, r8)
        }
      }
    }
  }
  /*----------------------------- HSI Configuration --------------------------*/ 
  if(((RCC_OscInitStruct->OscillatorType) & RCC_OSCILLATORTYPE_HSI) == RCC_OSCILLATORTYPE_HSI)
 8000e3a:	687b      	ldr	r3, [r7, #4]
 8000e3c:	681b      	ldr	r3, [r3, #0]
 8000e3e:	2202      	movs	r2, #2
 8000e40:	4013      	ands	r3, r2
 8000e42:	d100      	bne.n	8000e46 <HAL_RCC_OscConfig+0x146>
 8000e44:	e06c      	b.n	8000f20 <HAL_RCC_OscConfig+0x220>
    /* Check the parameters */
    assert_param(IS_RCC_HSI(RCC_OscInitStruct->HSIState));
    assert_param(IS_RCC_CALIBRATION_VALUE(RCC_OscInitStruct->HSICalibrationValue));
    
    /* Check if HSI is used as system clock or as PLL source when PLL is selected as system clock */ 
    if((__HAL_RCC_GET_SYSCLK_SOURCE() == RCC_SYSCLKSOURCE_STATUS_HSI) 
 8000e46:	4b7b      	ldr	r3, [pc, #492]	; (8001034 <HAL_RCC_OscConfig+0x334>)
 8000e48:	685b      	ldr	r3, [r3, #4]
 8000e4a:	220c      	movs	r2, #12
 8000e4c:	4013      	ands	r3, r2
 8000e4e:	d00e      	beq.n	8000e6e <HAL_RCC_OscConfig+0x16e>
       || ((__HAL_RCC_GET_SYSCLK_SOURCE() == RCC_SYSCLKSOURCE_STATUS_PLLCLK) && (__HAL_RCC_GET_PLL_OSCSOURCE() == RCC_PLLSOURCE_HSI)))
 8000e50:	4b78      	ldr	r3, [pc, #480]	; (8001034 <HAL_RCC_OscConfig+0x334>)
 8000e52:	685b      	ldr	r3, [r3, #4]
 8000e54:	220c      	movs	r2, #12
 8000e56:	4013      	ands	r3, r2
 8000e58:	2b08      	cmp	r3, #8
 8000e5a:	d11f      	bne.n	8000e9c <HAL_RCC_OscConfig+0x19c>
 8000e5c:	4b75      	ldr	r3, [pc, #468]	; (8001034 <HAL_RCC_OscConfig+0x334>)
 8000e5e:	685a      	ldr	r2, [r3, #4]
 8000e60:	23c0      	movs	r3, #192	; 0xc0
 8000e62:	025b      	lsls	r3, r3, #9
 8000e64:	401a      	ands	r2, r3
 8000e66:	2380      	movs	r3, #128	; 0x80
 8000e68:	021b      	lsls	r3, r3, #8
 8000e6a:	429a      	cmp	r2, r3
 8000e6c:	d116      	bne.n	8000e9c <HAL_RCC_OscConfig+0x19c>
    {
      /* When HSI is used as system clock it will not disabled */
      if((__HAL_RCC_GET_FLAG(RCC_FLAG_HSIRDY) != RESET) && (RCC_OscInitStruct->HSIState != RCC_HSI_ON))
 8000e6e:	4b71      	ldr	r3, [pc, #452]	; (8001034 <HAL_RCC_OscConfig+0x334>)
 8000e70:	681b      	ldr	r3, [r3, #0]
 8000e72:	2202      	movs	r2, #2
 8000e74:	4013      	ands	r3, r2
 8000e76:	d005      	beq.n	8000e84 <HAL_RCC_OscConfig+0x184>
 8000e78:	687b      	ldr	r3, [r7, #4]
 8000e7a:	68db      	ldr	r3, [r3, #12]
 8000e7c:	2b01      	cmp	r3, #1
 8000e7e:	d001      	beq.n	8000e84 <HAL_RCC_OscConfig+0x184>
      {
        return HAL_ERROR;
 8000e80:	2301      	movs	r3, #1
 8000e82:	e24c      	b.n	800131e <HAL_RCC_OscConfig+0x61e>
      }
      /* Otherwise, just the calibration is allowed */
      else
      {
        /* Adjusts the Internal High Speed oscillator (HSI) calibration value.*/
        __HAL_RCC_HSI_CALIBRATIONVALUE_ADJUST(RCC_OscInitStruct->HSICalibrationValue);
 8000e84:	4b6b      	ldr	r3, [pc, #428]	; (8001034 <HAL_RCC_OscConfig+0x334>)
 8000e86:	681b      	ldr	r3, [r3, #0]
 8000e88:	22f8      	movs	r2, #248	; 0xf8
 8000e8a:	4393      	bics	r3, r2
 8000e8c:	0019      	movs	r1, r3
 8000e8e:	687b      	ldr	r3, [r7, #4]
 8000e90:	691b      	ldr	r3, [r3, #16]
 8000e92:	00da      	lsls	r2, r3, #3
 8000e94:	4b67      	ldr	r3, [pc, #412]	; (8001034 <HAL_RCC_OscConfig+0x334>)
 8000e96:	430a      	orrs	r2, r1
 8000e98:	601a      	str	r2, [r3, #0]
      if((__HAL_RCC_GET_FLAG(RCC_FLAG_HSIRDY) != RESET) && (RCC_OscInitStruct->HSIState != RCC_HSI_ON))
 8000e9a:	e041      	b.n	8000f20 <HAL_RCC_OscConfig+0x220>
      }
    }
    else
    {
      /* Check the HSI State */
      if(RCC_OscInitStruct->HSIState != RCC_HSI_OFF)
 8000e9c:	687b      	ldr	r3, [r7, #4]
 8000e9e:	68db      	ldr	r3, [r3, #12]
 8000ea0:	2b00      	cmp	r3, #0
 8000ea2:	d024      	beq.n	8000eee <HAL_RCC_OscConfig+0x1ee>
      {
       /* Enable the Internal High Speed oscillator (HSI). */
        __HAL_RCC_HSI_ENABLE();
 8000ea4:	4b63      	ldr	r3, [pc, #396]	; (8001034 <HAL_RCC_OscConfig+0x334>)
 8000ea6:	681a      	ldr	r2, [r3, #0]
 8000ea8:	4b62      	ldr	r3, [pc, #392]	; (8001034 <HAL_RCC_OscConfig+0x334>)
 8000eaa:	2101      	movs	r1, #1
 8000eac:	430a      	orrs	r2, r1
 8000eae:	601a      	str	r2, [r3, #0]
        
        /* Get Start Tick */
        tickstart = HAL_GetTick();
 8000eb0:	f7ff fbe2 	bl	8000678 <HAL_GetTick>
 8000eb4:	0003      	movs	r3, r0
 8000eb6:	61bb      	str	r3, [r7, #24]
        
        /* Wait till HSI is ready */
        while(__HAL_RCC_GET_FLAG(RCC_FLAG_HSIRDY) == RESET)
 8000eb8:	e008      	b.n	8000ecc <HAL_RCC_OscConfig+0x1cc>
        {
          if((HAL_GetTick() - tickstart ) > HSI_TIMEOUT_VALUE)
 8000eba:	f7ff fbdd 	bl	8000678 <HAL_GetTick>
 8000ebe:	0002      	movs	r2, r0
 8000ec0:	69bb      	ldr	r3, [r7, #24]
 8000ec2:	1ad3      	subs	r3, r2, r3
 8000ec4:	2b02      	cmp	r3, #2
 8000ec6:	d901      	bls.n	8000ecc <HAL_RCC_OscConfig+0x1cc>
          {
            return HAL_TIMEOUT;
 8000ec8:	2303      	movs	r3, #3
 8000eca:	e228      	b.n	800131e <HAL_RCC_OscConfig+0x61e>
        while(__HAL_RCC_GET_FLAG(RCC_FLAG_HSIRDY) == RESET)
 8000ecc:	4b59      	ldr	r3, [pc, #356]	; (8001034 <HAL_RCC_OscConfig+0x334>)
 8000ece:	681b      	ldr	r3, [r3, #0]
 8000ed0:	2202      	movs	r2, #2
 8000ed2:	4013      	ands	r3, r2
 8000ed4:	d0f1      	beq.n	8000eba <HAL_RCC_OscConfig+0x1ba>
          }
        }
                
        /* Adjusts the Internal High Speed oscillator (HSI) calibration value.*/
        __HAL_RCC_HSI_CALIBRATIONVALUE_ADJUST(RCC_OscInitStruct->HSICalibrationValue);
 8000ed6:	4b57      	ldr	r3, [pc, #348]	; (8001034 <HAL_RCC_OscConfig+0x334>)
 8000ed8:	681b      	ldr	r3, [r3, #0]
 8000eda:	22f8      	movs	r2, #248	; 0xf8
 8000edc:	4393      	bics	r3, r2
 8000ede:	0019      	movs	r1, r3
 8000ee0:	687b      	ldr	r3, [r7, #4]
 8000ee2:	691b      	ldr	r3, [r3, #16]
 8000ee4:	00da      	lsls	r2, r3, #3
 8000ee6:	4b53      	ldr	r3, [pc, #332]	; (8001034 <HAL_RCC_OscConfig+0x334>)
 8000ee8:	430a      	orrs	r2, r1
 8000eea:	601a      	str	r2, [r3, #0]
 8000eec:	e018      	b.n	8000f20 <HAL_RCC_OscConfig+0x220>
      }
      else
      {
        /* Disable the Internal High Speed oscillator (HSI). */
        __HAL_RCC_HSI_DISABLE();
 8000eee:	4b51      	ldr	r3, [pc, #324]	; (8001034 <HAL_RCC_OscConfig+0x334>)
 8000ef0:	681a      	ldr	r2, [r3, #0]
 8000ef2:	4b50      	ldr	r3, [pc, #320]	; (8001034 <HAL_RCC_OscConfig+0x334>)
 8000ef4:	2101      	movs	r1, #1
 8000ef6:	438a      	bics	r2, r1
 8000ef8:	601a      	str	r2, [r3, #0]
        
        /* Get Start Tick */
        tickstart = HAL_GetTick();
 8000efa:	f7ff fbbd 	bl	8000678 <HAL_GetTick>
 8000efe:	0003      	movs	r3, r0
 8000f00:	61bb      	str	r3, [r7, #24]
        
        /* Wait till HSI is disabled */
        while(__HAL_RCC_GET_FLAG(RCC_FLAG_HSIRDY) != RESET)
 8000f02:	e008      	b.n	8000f16 <HAL_RCC_OscConfig+0x216>
        {
          if((HAL_GetTick() - tickstart ) > HSI_TIMEOUT_VALUE)
 8000f04:	f7ff fbb8 	bl	8000678 <HAL_GetTick>
 8000f08:	0002      	movs	r2, r0
 8000f0a:	69bb      	ldr	r3, [r7, #24]
 8000f0c:	1ad3      	subs	r3, r2, r3
 8000f0e:	2b02      	cmp	r3, #2
 8000f10:	d901      	bls.n	8000f16 <HAL_RCC_OscConfig+0x216>
          {
            return HAL_TIMEOUT;
 8000f12:	2303      	movs	r3, #3
 8000f14:	e203      	b.n	800131e <HAL_RCC_OscConfig+0x61e>
        while(__HAL_RCC_GET_FLAG(RCC_FLAG_HSIRDY) != RESET)
 8000f16:	4b47      	ldr	r3, [pc, #284]	; (8001034 <HAL_RCC_OscConfig+0x334>)
 8000f18:	681b      	ldr	r3, [r3, #0]
 8000f1a:	2202      	movs	r2, #2
 8000f1c:	4013      	ands	r3, r2
 8000f1e:	d1f1      	bne.n	8000f04 <HAL_RCC_OscConfig+0x204>
        }
      }
    }
  }
  /*------------------------------ LSI Configuration -------------------------*/ 
  if(((RCC_OscInitStruct->OscillatorType) & RCC_OSCILLATORTYPE_LSI) == RCC_OSCILLATORTYPE_LSI)
 8000f20:	687b      	ldr	r3, [r7, #4]
 8000f22:	681b      	ldr	r3, [r3, #0]
 8000f24:	2208      	movs	r2, #8
 8000f26:	4013      	ands	r3, r2
 8000f28:	d036      	beq.n	8000f98 <HAL_RCC_OscConfig+0x298>
  {
    /* Check the parameters */
    assert_param(IS_RCC_LSI(RCC_OscInitStruct->LSIState));
    
    /* Check the LSI State */
    if(RCC_OscInitStruct->LSIState != RCC_LSI_OFF)
 8000f2a:	687b      	ldr	r3, [r7, #4]
 8000f2c:	69db      	ldr	r3, [r3, #28]
 8000f2e:	2b00      	cmp	r3, #0
 8000f30:	d019      	beq.n	8000f66 <HAL_RCC_OscConfig+0x266>
    {
      /* Enable the Internal Low Speed oscillator (LSI). */
      __HAL_RCC_LSI_ENABLE();
 8000f32:	4b40      	ldr	r3, [pc, #256]	; (8001034 <HAL_RCC_OscConfig+0x334>)
 8000f34:	6a5a      	ldr	r2, [r3, #36]	; 0x24
 8000f36:	4b3f      	ldr	r3, [pc, #252]	; (8001034 <HAL_RCC_OscConfig+0x334>)
 8000f38:	2101      	movs	r1, #1
 8000f3a:	430a      	orrs	r2, r1
 8000f3c:	625a      	str	r2, [r3, #36]	; 0x24
      
      /* Get Start Tick */
      tickstart = HAL_GetTick();
 8000f3e:	f7ff fb9b 	bl	8000678 <HAL_GetTick>
 8000f42:	0003      	movs	r3, r0
 8000f44:	61bb      	str	r3, [r7, #24]
      
      /* Wait till LSI is ready */  
      while(__HAL_RCC_GET_FLAG(RCC_FLAG_LSIRDY) == RESET)
 8000f46:	e008      	b.n	8000f5a <HAL_RCC_OscConfig+0x25a>
      {
        if((HAL_GetTick() - tickstart ) > LSI_TIMEOUT_VALUE)
 8000f48:	f7ff fb96 	bl	8000678 <HAL_GetTick>
 8000f4c:	0002      	movs	r2, r0
 8000f4e:	69bb      	ldr	r3, [r7, #24]
 8000f50:	1ad3      	subs	r3, r2, r3
 8000f52:	2b02      	cmp	r3, #2
 8000f54:	d901      	bls.n	8000f5a <HAL_RCC_OscConfig+0x25a>
        {
          return HAL_TIMEOUT;
 8000f56:	2303      	movs	r3, #3
 8000f58:	e1e1      	b.n	800131e <HAL_RCC_OscConfig+0x61e>
      while(__HAL_RCC_GET_FLAG(RCC_FLAG_LSIRDY) == RESET)
 8000f5a:	4b36      	ldr	r3, [pc, #216]	; (8001034 <HAL_RCC_OscConfig+0x334>)
 8000f5c:	6a5b      	ldr	r3, [r3, #36]	; 0x24
 8000f5e:	2202      	movs	r2, #2
 8000f60:	4013      	ands	r3, r2
 8000f62:	d0f1      	beq.n	8000f48 <HAL_RCC_OscConfig+0x248>
 8000f64:	e018      	b.n	8000f98 <HAL_RCC_OscConfig+0x298>
      }
    }
    else
    {
      /* Disable the Internal Low Speed oscillator (LSI). */
      __HAL_RCC_LSI_DISABLE();
 8000f66:	4b33      	ldr	r3, [pc, #204]	; (8001034 <HAL_RCC_OscConfig+0x334>)
 8000f68:	6a5a      	ldr	r2, [r3, #36]	; 0x24
 8000f6a:	4b32      	ldr	r3, [pc, #200]	; (8001034 <HAL_RCC_OscConfig+0x334>)
 8000f6c:	2101      	movs	r1, #1
 8000f6e:	438a      	bics	r2, r1
 8000f70:	625a      	str	r2, [r3, #36]	; 0x24
      
      /* Get Start Tick */
      tickstart = HAL_GetTick();
 8000f72:	f7ff fb81 	bl	8000678 <HAL_GetTick>
 8000f76:	0003      	movs	r3, r0
 8000f78:	61bb      	str	r3, [r7, #24]
      
      /* Wait till LSI is disabled */  
      while(__HAL_RCC_GET_FLAG(RCC_FLAG_LSIRDY) != RESET)
 8000f7a:	e008      	b.n	8000f8e <HAL_RCC_OscConfig+0x28e>
      {
        if((HAL_GetTick() - tickstart ) > LSI_TIMEOUT_VALUE)
 8000f7c:	f7ff fb7c 	bl	8000678 <HAL_GetTick>
 8000f80:	0002      	movs	r2, r0
 8000f82:	69bb      	ldr	r3, [r7, #24]
 8000f84:	1ad3      	subs	r3, r2, r3
 8000f86:	2b02      	cmp	r3, #2
 8000f88:	d901      	bls.n	8000f8e <HAL_RCC_OscConfig+0x28e>
        {
          return HAL_TIMEOUT;
 8000f8a:	2303      	movs	r3, #3
 8000f8c:	e1c7      	b.n	800131e <HAL_RCC_OscConfig+0x61e>
      while(__HAL_RCC_GET_FLAG(RCC_FLAG_LSIRDY) != RESET)
 8000f8e:	4b29      	ldr	r3, [pc, #164]	; (8001034 <HAL_RCC_OscConfig+0x334>)
 8000f90:	6a5b      	ldr	r3, [r3, #36]	; 0x24
 8000f92:	2202      	movs	r2, #2
 8000f94:	4013      	ands	r3, r2
 8000f96:	d1f1      	bne.n	8000f7c <HAL_RCC_OscConfig+0x27c>
        }
      }
    }
  }
  /*------------------------------ LSE Configuration -------------------------*/ 
  if(((RCC_OscInitStruct->OscillatorType) & RCC_OSCILLATORTYPE_LSE) == RCC_OSCILLATORTYPE_LSE)
 8000f98:	687b      	ldr	r3, [r7, #4]
 8000f9a:	681b      	ldr	r3, [r3, #0]
 8000f9c:	2204      	movs	r2, #4
 8000f9e:	4013      	ands	r3, r2
 8000fa0:	d100      	bne.n	8000fa4 <HAL_RCC_OscConfig+0x2a4>
 8000fa2:	e0b5      	b.n	8001110 <HAL_RCC_OscConfig+0x410>
  {
    FlagStatus       pwrclkchanged = RESET;
 8000fa4:	231f      	movs	r3, #31
 8000fa6:	18fb      	adds	r3, r7, r3
 8000fa8:	2200      	movs	r2, #0
 8000faa:	701a      	strb	r2, [r3, #0]
    /* Check the parameters */
    assert_param(IS_RCC_LSE(RCC_OscInitStruct->LSEState));

    /* Update LSE configuration in Backup Domain control register    */
    /* Requires to enable write access to Backup Domain of necessary */
    if(__HAL_RCC_PWR_IS_CLK_DISABLED())
 8000fac:	4b21      	ldr	r3, [pc, #132]	; (8001034 <HAL_RCC_OscConfig+0x334>)
 8000fae:	69da      	ldr	r2, [r3, #28]
 8000fb0:	2380      	movs	r3, #128	; 0x80
 8000fb2:	055b      	lsls	r3, r3, #21
 8000fb4:	4013      	ands	r3, r2
 8000fb6:	d111      	bne.n	8000fdc <HAL_RCC_OscConfig+0x2dc>
    {
      __HAL_RCC_PWR_CLK_ENABLE();
 8000fb8:	4b1e      	ldr	r3, [pc, #120]	; (8001034 <HAL_RCC_OscConfig+0x334>)
 8000fba:	69da      	ldr	r2, [r3, #28]
 8000fbc:	4b1d      	ldr	r3, [pc, #116]	; (8001034 <HAL_RCC_OscConfig+0x334>)
 8000fbe:	2180      	movs	r1, #128	; 0x80
 8000fc0:	0549      	lsls	r1, r1, #21
 8000fc2:	430a      	orrs	r2, r1
 8000fc4:	61da      	str	r2, [r3, #28]
 8000fc6:	4b1b      	ldr	r3, [pc, #108]	; (8001034 <HAL_RCC_OscConfig+0x334>)
 8000fc8:	69da      	ldr	r2, [r3, #28]
 8000fca:	2380      	movs	r3, #128	; 0x80
 8000fcc:	055b      	lsls	r3, r3, #21
 8000fce:	4013      	ands	r3, r2
 8000fd0:	60fb      	str	r3, [r7, #12]
 8000fd2:	68fb      	ldr	r3, [r7, #12]
      pwrclkchanged = SET;
 8000fd4:	231f      	movs	r3, #31
 8000fd6:	18fb      	adds	r3, r7, r3
 8000fd8:	2201      	movs	r2, #1
 8000fda:	701a      	strb	r2, [r3, #0]
    }
    
    if(HAL_IS_BIT_CLR(PWR->CR, PWR_CR_DBP))
 8000fdc:	4b18      	ldr	r3, [pc, #96]	; (8001040 <HAL_RCC_OscConfig+0x340>)
 8000fde:	681a      	ldr	r2, [r3, #0]
 8000fe0:	2380      	movs	r3, #128	; 0x80
 8000fe2:	005b      	lsls	r3, r3, #1
 8000fe4:	4013      	ands	r3, r2
 8000fe6:	d11a      	bne.n	800101e <HAL_RCC_OscConfig+0x31e>
    {
      /* Enable write access to Backup domain */
      SET_BIT(PWR->CR, PWR_CR_DBP);
 8000fe8:	4b15      	ldr	r3, [pc, #84]	; (8001040 <HAL_RCC_OscConfig+0x340>)
 8000fea:	681a      	ldr	r2, [r3, #0]
 8000fec:	4b14      	ldr	r3, [pc, #80]	; (8001040 <HAL_RCC_OscConfig+0x340>)
 8000fee:	2180      	movs	r1, #128	; 0x80
 8000ff0:	0049      	lsls	r1, r1, #1
 8000ff2:	430a      	orrs	r2, r1
 8000ff4:	601a      	str	r2, [r3, #0]
      
      /* Wait for Backup domain Write protection disable */
      tickstart = HAL_GetTick();
 8000ff6:	f7ff fb3f 	bl	8000678 <HAL_GetTick>
 8000ffa:	0003      	movs	r3, r0
 8000ffc:	61bb      	str	r3, [r7, #24]

      while(HAL_IS_BIT_CLR(PWR->CR, PWR_CR_DBP))
 8000ffe:	e008      	b.n	8001012 <HAL_RCC_OscConfig+0x312>
      {
        if((HAL_GetTick() - tickstart) > RCC_DBP_TIMEOUT_VALUE)
 8001000:	f7ff fb3a 	bl	8000678 <HAL_GetTick>
 8001004:	0002      	movs	r2, r0
 8001006:	69bb      	ldr	r3, [r7, #24]
 8001008:	1ad3      	subs	r3, r2, r3
 800100a:	2b64      	cmp	r3, #100	; 0x64
 800100c:	d901      	bls.n	8001012 <HAL_RCC_OscConfig+0x312>
        {
          return HAL_TIMEOUT;
 800100e:	2303      	movs	r3, #3
 8001010:	e185      	b.n	800131e <HAL_RCC_OscConfig+0x61e>
      while(HAL_IS_BIT_CLR(PWR->CR, PWR_CR_DBP))
 8001012:	4b0b      	ldr	r3, [pc, #44]	; (8001040 <HAL_RCC_OscConfig+0x340>)
 8001014:	681a      	ldr	r2, [r3, #0]
 8001016:	2380      	movs	r3, #128	; 0x80
 8001018:	005b      	lsls	r3, r3, #1
 800101a:	4013      	ands	r3, r2
 800101c:	d0f0      	beq.n	8001000 <HAL_RCC_OscConfig+0x300>
        }
      }
    }

    /* Set the new LSE configuration -----------------------------------------*/
    __HAL_RCC_LSE_CONFIG(RCC_OscInitStruct->LSEState);
 800101e:	687b      	ldr	r3, [r7, #4]
 8001020:	689b      	ldr	r3, [r3, #8]
 8001022:	2b01      	cmp	r3, #1
 8001024:	d10e      	bne.n	8001044 <HAL_RCC_OscConfig+0x344>
 8001026:	4b03      	ldr	r3, [pc, #12]	; (8001034 <HAL_RCC_OscConfig+0x334>)
 8001028:	6a1a      	ldr	r2, [r3, #32]
 800102a:	4b02      	ldr	r3, [pc, #8]	; (8001034 <HAL_RCC_OscConfig+0x334>)
 800102c:	2101      	movs	r1, #1
 800102e:	430a      	orrs	r2, r1
 8001030:	621a      	str	r2, [r3, #32]
 8001032:	e035      	b.n	80010a0 <HAL_RCC_OscConfig+0x3a0>
 8001034:	40021000 	.word	0x40021000
 8001038:	fffeffff 	.word	0xfffeffff
 800103c:	fffbffff 	.word	0xfffbffff
 8001040:	40007000 	.word	0x40007000
 8001044:	687b      	ldr	r3, [r7, #4]
 8001046:	689b      	ldr	r3, [r3, #8]
 8001048:	2b00      	cmp	r3, #0
 800104a:	d10c      	bne.n	8001066 <HAL_RCC_OscConfig+0x366>
 800104c:	4bb6      	ldr	r3, [pc, #728]	; (8001328 <HAL_RCC_OscConfig+0x628>)
 800104e:	6a1a      	ldr	r2, [r3, #32]
 8001050:	4bb5      	ldr	r3, [pc, #724]	; (8001328 <HAL_RCC_OscConfig+0x628>)
 8001052:	2101      	movs	r1, #1
 8001054:	438a      	bics	r2, r1
 8001056:	621a      	str	r2, [r3, #32]
 8001058:	4bb3      	ldr	r3, [pc, #716]	; (8001328 <HAL_RCC_OscConfig+0x628>)
 800105a:	6a1a      	ldr	r2, [r3, #32]
 800105c:	4bb2      	ldr	r3, [pc, #712]	; (8001328 <HAL_RCC_OscConfig+0x628>)
 800105e:	2104      	movs	r1, #4
 8001060:	438a      	bics	r2, r1
 8001062:	621a      	str	r2, [r3, #32]
 8001064:	e01c      	b.n	80010a0 <HAL_RCC_OscConfig+0x3a0>
 8001066:	687b      	ldr	r3, [r7, #4]
 8001068:	689b      	ldr	r3, [r3, #8]
 800106a:	2b05      	cmp	r3, #5
 800106c:	d10c      	bne.n	8001088 <HAL_RCC_OscConfig+0x388>
 800106e:	4bae      	ldr	r3, [pc, #696]	; (8001328 <HAL_RCC_OscConfig+0x628>)
 8001070:	6a1a      	ldr	r2, [r3, #32]
 8001072:	4bad      	ldr	r3, [pc, #692]	; (8001328 <HAL_RCC_OscConfig+0x628>)
 8001074:	2104      	movs	r1, #4
 8001076:	430a      	orrs	r2, r1
 8001078:	621a      	str	r2, [r3, #32]
 800107a:	4bab      	ldr	r3, [pc, #684]	; (8001328 <HAL_RCC_OscConfig+0x628>)
 800107c:	6a1a      	ldr	r2, [r3, #32]
 800107e:	4baa      	ldr	r3, [pc, #680]	; (8001328 <HAL_RCC_OscConfig+0x628>)
 8001080:	2101      	movs	r1, #1
 8001082:	430a      	orrs	r2, r1
 8001084:	621a      	str	r2, [r3, #32]
 8001086:	e00b      	b.n	80010a0 <HAL_RCC_OscConfig+0x3a0>
 8001088:	4ba7      	ldr	r3, [pc, #668]	; (8001328 <HAL_RCC_OscConfig+0x628>)
 800108a:	6a1a      	ldr	r2, [r3, #32]
 800108c:	4ba6      	ldr	r3, [pc, #664]	; (8001328 <HAL_RCC_OscConfig+0x628>)
 800108e:	2101      	movs	r1, #1
 8001090:	438a      	bics	r2, r1
 8001092:	621a      	str	r2, [r3, #32]
 8001094:	4ba4      	ldr	r3, [pc, #656]	; (8001328 <HAL_RCC_OscConfig+0x628>)
 8001096:	6a1a      	ldr	r2, [r3, #32]
 8001098:	4ba3      	ldr	r3, [pc, #652]	; (8001328 <HAL_RCC_OscConfig+0x628>)
 800109a:	2104      	movs	r1, #4
 800109c:	438a      	bics	r2, r1
 800109e:	621a      	str	r2, [r3, #32]
    /* Check the LSE State */
    if(RCC_OscInitStruct->LSEState != RCC_LSE_OFF)
 80010a0:	687b      	ldr	r3, [r7, #4]
 80010a2:	689b      	ldr	r3, [r3, #8]
 80010a4:	2b00      	cmp	r3, #0
 80010a6:	d014      	beq.n	80010d2 <HAL_RCC_OscConfig+0x3d2>
    {
      /* Get Start Tick */
      tickstart = HAL_GetTick();
 80010a8:	f7ff fae6 	bl	8000678 <HAL_GetTick>
 80010ac:	0003      	movs	r3, r0
 80010ae:	61bb      	str	r3, [r7, #24]
      
      /* Wait till LSE is ready */  
      while(__HAL_RCC_GET_FLAG(RCC_FLAG_LSERDY) == RESET)
 80010b0:	e009      	b.n	80010c6 <HAL_RCC_OscConfig+0x3c6>
      {
        if((HAL_GetTick() - tickstart ) > RCC_LSE_TIMEOUT_VALUE)
 80010b2:	f7ff fae1 	bl	8000678 <HAL_GetTick>
 80010b6:	0002      	movs	r2, r0
 80010b8:	69bb      	ldr	r3, [r7, #24]
 80010ba:	1ad3      	subs	r3, r2, r3
 80010bc:	4a9b      	ldr	r2, [pc, #620]	; (800132c <HAL_RCC_OscConfig+0x62c>)
 80010be:	4293      	cmp	r3, r2
 80010c0:	d901      	bls.n	80010c6 <HAL_RCC_OscConfig+0x3c6>
        {
          return HAL_TIMEOUT;
 80010c2:	2303      	movs	r3, #3
 80010c4:	e12b      	b.n	800131e <HAL_RCC_OscConfig+0x61e>
      while(__HAL_RCC_GET_FLAG(RCC_FLAG_LSERDY) == RESET)
 80010c6:	4b98      	ldr	r3, [pc, #608]	; (8001328 <HAL_RCC_OscConfig+0x628>)
 80010c8:	6a1b      	ldr	r3, [r3, #32]
 80010ca:	2202      	movs	r2, #2
 80010cc:	4013      	ands	r3, r2
 80010ce:	d0f0      	beq.n	80010b2 <HAL_RCC_OscConfig+0x3b2>
 80010d0:	e013      	b.n	80010fa <HAL_RCC_OscConfig+0x3fa>
      }
    }
    else
    {
      /* Get Start Tick */
      tickstart = HAL_GetTick();
 80010d2:	f7ff fad1 	bl	8000678 <HAL_GetTick>
 80010d6:	0003      	movs	r3, r0
 80010d8:	61bb      	str	r3, [r7, #24]
      
      /* Wait till LSE is disabled */  
      while(__HAL_RCC_GET_FLAG(RCC_FLAG_LSERDY) != RESET)
 80010da:	e009      	b.n	80010f0 <HAL_RCC_OscConfig+0x3f0>
      {
        if((HAL_GetTick() - tickstart ) > RCC_LSE_TIMEOUT_VALUE)
 80010dc:	f7ff facc 	bl	8000678 <HAL_GetTick>
 80010e0:	0002      	movs	r2, r0
 80010e2:	69bb      	ldr	r3, [r7, #24]
 80010e4:	1ad3      	subs	r3, r2, r3
 80010e6:	4a91      	ldr	r2, [pc, #580]	; (800132c <HAL_RCC_OscConfig+0x62c>)
 80010e8:	4293      	cmp	r3, r2
 80010ea:	d901      	bls.n	80010f0 <HAL_RCC_OscConfig+0x3f0>
        {
          return HAL_TIMEOUT;
 80010ec:	2303      	movs	r3, #3
 80010ee:	e116      	b.n	800131e <HAL_RCC_OscConfig+0x61e>
      while(__HAL_RCC_GET_FLAG(RCC_FLAG_LSERDY) != RESET)
 80010f0:	4b8d      	ldr	r3, [pc, #564]	; (8001328 <HAL_RCC_OscConfig+0x628>)
 80010f2:	6a1b      	ldr	r3, [r3, #32]
 80010f4:	2202      	movs	r2, #2
 80010f6:	4013      	ands	r3, r2
 80010f8:	d1f0      	bne.n	80010dc <HAL_RCC_OscConfig+0x3dc>
        }
      }
    }

    /* Require to disable power clock if necessary */
    if(pwrclkchanged == SET)
 80010fa:	231f      	movs	r3, #31
 80010fc:	18fb      	adds	r3, r7, r3
 80010fe:	781b      	ldrb	r3, [r3, #0]
 8001100:	2b01      	cmp	r3, #1
 8001102:	d105      	bne.n	8001110 <HAL_RCC_OscConfig+0x410>
    {
      __HAL_RCC_PWR_CLK_DISABLE();
 8001104:	4b88      	ldr	r3, [pc, #544]	; (8001328 <HAL_RCC_OscConfig+0x628>)
 8001106:	69da      	ldr	r2, [r3, #28]
 8001108:	4b87      	ldr	r3, [pc, #540]	; (8001328 <HAL_RCC_OscConfig+0x628>)
 800110a:	4989      	ldr	r1, [pc, #548]	; (8001330 <HAL_RCC_OscConfig+0x630>)
 800110c:	400a      	ands	r2, r1
 800110e:	61da      	str	r2, [r3, #28]
    }
  }

  /*----------------------------- HSI14 Configuration --------------------------*/
  if(((RCC_OscInitStruct->OscillatorType) & RCC_OSCILLATORTYPE_HSI14) == RCC_OSCILLATORTYPE_HSI14)
 8001110:	687b      	ldr	r3, [r7, #4]
 8001112:	681b      	ldr	r3, [r3, #0]
 8001114:	2210      	movs	r2, #16
 8001116:	4013      	ands	r3, r2
 8001118:	d063      	beq.n	80011e2 <HAL_RCC_OscConfig+0x4e2>
    /* Check the parameters */
    assert_param(IS_RCC_HSI14(RCC_OscInitStruct->HSI14State));
    assert_param(IS_RCC_CALIBRATION_VALUE(RCC_OscInitStruct->HSI14CalibrationValue));

    /* Check the HSI14 State */
    if(RCC_OscInitStruct->HSI14State == RCC_HSI14_ON)
 800111a:	687b      	ldr	r3, [r7, #4]
 800111c:	695b      	ldr	r3, [r3, #20]
 800111e:	2b01      	cmp	r3, #1
 8001120:	d12a      	bne.n	8001178 <HAL_RCC_OscConfig+0x478>
    {
      /* Disable ADC control of the Internal High Speed oscillator HSI14 */
      __HAL_RCC_HSI14ADC_DISABLE();
 8001122:	4b81      	ldr	r3, [pc, #516]	; (8001328 <HAL_RCC_OscConfig+0x628>)
 8001124:	6b5a      	ldr	r2, [r3, #52]	; 0x34
 8001126:	4b80      	ldr	r3, [pc, #512]	; (8001328 <HAL_RCC_OscConfig+0x628>)
 8001128:	2104      	movs	r1, #4
 800112a:	430a      	orrs	r2, r1
 800112c:	635a      	str	r2, [r3, #52]	; 0x34

      /* Enable the Internal High Speed oscillator (HSI). */
      __HAL_RCC_HSI14_ENABLE();
 800112e:	4b7e      	ldr	r3, [pc, #504]	; (8001328 <HAL_RCC_OscConfig+0x628>)
 8001130:	6b5a      	ldr	r2, [r3, #52]	; 0x34
 8001132:	4b7d      	ldr	r3, [pc, #500]	; (8001328 <HAL_RCC_OscConfig+0x628>)
 8001134:	2101      	movs	r1, #1
 8001136:	430a      	orrs	r2, r1
 8001138:	635a      	str	r2, [r3, #52]	; 0x34

      /* Get Start Tick */
      tickstart = HAL_GetTick();
 800113a:	f7ff fa9d 	bl	8000678 <HAL_GetTick>
 800113e:	0003      	movs	r3, r0
 8001140:	61bb      	str	r3, [r7, #24]
      
      /* Wait till HSI is ready */  
      while(__HAL_RCC_GET_FLAG(RCC_FLAG_HSI14RDY) == RESET)
 8001142:	e008      	b.n	8001156 <HAL_RCC_OscConfig+0x456>
      {
        if((HAL_GetTick() - tickstart) > HSI14_TIMEOUT_VALUE)
 8001144:	f7ff fa98 	bl	8000678 <HAL_GetTick>
 8001148:	0002      	movs	r2, r0
 800114a:	69bb      	ldr	r3, [r7, #24]
 800114c:	1ad3      	subs	r3, r2, r3
 800114e:	2b02      	cmp	r3, #2
 8001150:	d901      	bls.n	8001156 <HAL_RCC_OscConfig+0x456>
        {
          return HAL_TIMEOUT;
 8001152:	2303      	movs	r3, #3
 8001154:	e0e3      	b.n	800131e <HAL_RCC_OscConfig+0x61e>
      while(__HAL_RCC_GET_FLAG(RCC_FLAG_HSI14RDY) == RESET)
 8001156:	4b74      	ldr	r3, [pc, #464]	; (8001328 <HAL_RCC_OscConfig+0x628>)
 8001158:	6b5b      	ldr	r3, [r3, #52]	; 0x34
 800115a:	2202      	movs	r2, #2
 800115c:	4013      	ands	r3, r2
 800115e:	d0f1      	beq.n	8001144 <HAL_RCC_OscConfig+0x444>
        }      
      } 

      /* Adjusts the Internal High Speed oscillator 14Mhz (HSI14) calibration value. */
      __HAL_RCC_HSI14_CALIBRATIONVALUE_ADJUST(RCC_OscInitStruct->HSI14CalibrationValue);
 8001160:	4b71      	ldr	r3, [pc, #452]	; (8001328 <HAL_RCC_OscConfig+0x628>)
 8001162:	6b5b      	ldr	r3, [r3, #52]	; 0x34
 8001164:	22f8      	movs	r2, #248	; 0xf8
 8001166:	4393      	bics	r3, r2
 8001168:	0019      	movs	r1, r3
 800116a:	687b      	ldr	r3, [r7, #4]
 800116c:	699b      	ldr	r3, [r3, #24]
 800116e:	00da      	lsls	r2, r3, #3
 8001170:	4b6d      	ldr	r3, [pc, #436]	; (8001328 <HAL_RCC_OscConfig+0x628>)
 8001172:	430a      	orrs	r2, r1
 8001174:	635a      	str	r2, [r3, #52]	; 0x34
 8001176:	e034      	b.n	80011e2 <HAL_RCC_OscConfig+0x4e2>
    }
    else if(RCC_OscInitStruct->HSI14State == RCC_HSI14_ADC_CONTROL)
 8001178:	687b      	ldr	r3, [r7, #4]
 800117a:	695b      	ldr	r3, [r3, #20]
 800117c:	3305      	adds	r3, #5
 800117e:	d111      	bne.n	80011a4 <HAL_RCC_OscConfig+0x4a4>
    {
      /* Enable ADC control of the Internal High Speed oscillator HSI14 */
      __HAL_RCC_HSI14ADC_ENABLE();
 8001180:	4b69      	ldr	r3, [pc, #420]	; (8001328 <HAL_RCC_OscConfig+0x628>)
 8001182:	6b5a      	ldr	r2, [r3, #52]	; 0x34
 8001184:	4b68      	ldr	r3, [pc, #416]	; (8001328 <HAL_RCC_OscConfig+0x628>)
 8001186:	2104      	movs	r1, #4
 8001188:	438a      	bics	r2, r1
 800118a:	635a      	str	r2, [r3, #52]	; 0x34

      /* Adjusts the Internal High Speed oscillator 14Mhz (HSI14) calibration value. */
      __HAL_RCC_HSI14_CALIBRATIONVALUE_ADJUST(RCC_OscInitStruct->HSI14CalibrationValue);
 800118c:	4b66      	ldr	r3, [pc, #408]	; (8001328 <HAL_RCC_OscConfig+0x628>)
 800118e:	6b5b      	ldr	r3, [r3, #52]	; 0x34
 8001190:	22f8      	movs	r2, #248	; 0xf8
 8001192:	4393      	bics	r3, r2
 8001194:	0019      	movs	r1, r3
 8001196:	687b      	ldr	r3, [r7, #4]
 8001198:	699b      	ldr	r3, [r3, #24]
 800119a:	00da      	lsls	r2, r3, #3
 800119c:	4b62      	ldr	r3, [pc, #392]	; (8001328 <HAL_RCC_OscConfig+0x628>)
 800119e:	430a      	orrs	r2, r1
 80011a0:	635a      	str	r2, [r3, #52]	; 0x34
 80011a2:	e01e      	b.n	80011e2 <HAL_RCC_OscConfig+0x4e2>
    }
    else
    {
      /* Disable ADC control of the Internal High Speed oscillator HSI14 */
      __HAL_RCC_HSI14ADC_DISABLE();
 80011a4:	4b60      	ldr	r3, [pc, #384]	; (8001328 <HAL_RCC_OscConfig+0x628>)
 80011a6:	6b5a      	ldr	r2, [r3, #52]	; 0x34
 80011a8:	4b5f      	ldr	r3, [pc, #380]	; (8001328 <HAL_RCC_OscConfig+0x628>)
 80011aa:	2104      	movs	r1, #4
 80011ac:	430a      	orrs	r2, r1
 80011ae:	635a      	str	r2, [r3, #52]	; 0x34

      /* Disable the Internal High Speed oscillator (HSI). */
      __HAL_RCC_HSI14_DISABLE();
 80011b0:	4b5d      	ldr	r3, [pc, #372]	; (8001328 <HAL_RCC_OscConfig+0x628>)
 80011b2:	6b5a      	ldr	r2, [r3, #52]	; 0x34
 80011b4:	4b5c      	ldr	r3, [pc, #368]	; (8001328 <HAL_RCC_OscConfig+0x628>)
 80011b6:	2101      	movs	r1, #1
 80011b8:	438a      	bics	r2, r1
 80011ba:	635a      	str	r2, [r3, #52]	; 0x34

      /* Get Start Tick */
      tickstart = HAL_GetTick();
 80011bc:	f7ff fa5c 	bl	8000678 <HAL_GetTick>
 80011c0:	0003      	movs	r3, r0
 80011c2:	61bb      	str	r3, [r7, #24]
      
      /* Wait till HSI is ready */  
      while(__HAL_RCC_GET_FLAG(RCC_FLAG_HSI14RDY) != RESET)
 80011c4:	e008      	b.n	80011d8 <HAL_RCC_OscConfig+0x4d8>
      {
        if((HAL_GetTick() - tickstart) > HSI14_TIMEOUT_VALUE)
 80011c6:	f7ff fa57 	bl	8000678 <HAL_GetTick>
 80011ca:	0002      	movs	r2, r0
 80011cc:	69bb      	ldr	r3, [r7, #24]
 80011ce:	1ad3      	subs	r3, r2, r3
 80011d0:	2b02      	cmp	r3, #2
 80011d2:	d901      	bls.n	80011d8 <HAL_RCC_OscConfig+0x4d8>
        {
          return HAL_TIMEOUT;
 80011d4:	2303      	movs	r3, #3
 80011d6:	e0a2      	b.n	800131e <HAL_RCC_OscConfig+0x61e>
      while(__HAL_RCC_GET_FLAG(RCC_FLAG_HSI14RDY) != RESET)
 80011d8:	4b53      	ldr	r3, [pc, #332]	; (8001328 <HAL_RCC_OscConfig+0x628>)
 80011da:	6b5b      	ldr	r3, [r3, #52]	; 0x34
 80011dc:	2202      	movs	r2, #2
 80011de:	4013      	ands	r3, r2
 80011e0:	d1f1      	bne.n	80011c6 <HAL_RCC_OscConfig+0x4c6>
#endif /* RCC_HSI48_SUPPORT */
       
  /*-------------------------------- PLL Configuration -----------------------*/
  /* Check the parameters */
  assert_param(IS_RCC_PLL(RCC_OscInitStruct->PLL.PLLState));
  if ((RCC_OscInitStruct->PLL.PLLState) != RCC_PLL_NONE)
 80011e2:	687b      	ldr	r3, [r7, #4]
 80011e4:	6a1b      	ldr	r3, [r3, #32]
 80011e6:	2b00      	cmp	r3, #0
 80011e8:	d100      	bne.n	80011ec <HAL_RCC_OscConfig+0x4ec>
 80011ea:	e097      	b.n	800131c <HAL_RCC_OscConfig+0x61c>
  {
    /* Check if the PLL is used as system clock or not */
    if(__HAL_RCC_GET_SYSCLK_SOURCE() != RCC_SYSCLKSOURCE_STATUS_PLLCLK)
 80011ec:	4b4e      	ldr	r3, [pc, #312]	; (8001328 <HAL_RCC_OscConfig+0x628>)
 80011ee:	685b      	ldr	r3, [r3, #4]
 80011f0:	220c      	movs	r2, #12
 80011f2:	4013      	ands	r3, r2
 80011f4:	2b08      	cmp	r3, #8
 80011f6:	d100      	bne.n	80011fa <HAL_RCC_OscConfig+0x4fa>
 80011f8:	e06b      	b.n	80012d2 <HAL_RCC_OscConfig+0x5d2>
    { 
      if((RCC_OscInitStruct->PLL.PLLState) == RCC_PLL_ON)
 80011fa:	687b      	ldr	r3, [r7, #4]
 80011fc:	6a1b      	ldr	r3, [r3, #32]
 80011fe:	2b02      	cmp	r3, #2
 8001200:	d14c      	bne.n	800129c <HAL_RCC_OscConfig+0x59c>
        assert_param(IS_RCC_PLLSOURCE(RCC_OscInitStruct->PLL.PLLSource));
        assert_param(IS_RCC_PLL_MUL(RCC_OscInitStruct->PLL.PLLMUL));
        assert_param(IS_RCC_PREDIV(RCC_OscInitStruct->PLL.PREDIV));
  
        /* Disable the main PLL. */
        __HAL_RCC_PLL_DISABLE();
 8001202:	4b49      	ldr	r3, [pc, #292]	; (8001328 <HAL_RCC_OscConfig+0x628>)
 8001204:	681a      	ldr	r2, [r3, #0]
 8001206:	4b48      	ldr	r3, [pc, #288]	; (8001328 <HAL_RCC_OscConfig+0x628>)
 8001208:	494a      	ldr	r1, [pc, #296]	; (8001334 <HAL_RCC_OscConfig+0x634>)
 800120a:	400a      	ands	r2, r1
 800120c:	601a      	str	r2, [r3, #0]
        
        /* Get Start Tick */
        tickstart = HAL_GetTick();
 800120e:	f7ff fa33 	bl	8000678 <HAL_GetTick>
 8001212:	0003      	movs	r3, r0
 8001214:	61bb      	str	r3, [r7, #24]
        
        /* Wait till PLL is disabled */
        while(__HAL_RCC_GET_FLAG(RCC_FLAG_PLLRDY)  != RESET)
 8001216:	e008      	b.n	800122a <HAL_RCC_OscConfig+0x52a>
        {
          if((HAL_GetTick() - tickstart ) > PLL_TIMEOUT_VALUE)
 8001218:	f7ff fa2e 	bl	8000678 <HAL_GetTick>
 800121c:	0002      	movs	r2, r0
 800121e:	69bb      	ldr	r3, [r7, #24]
 8001220:	1ad3      	subs	r3, r2, r3
 8001222:	2b02      	cmp	r3, #2
 8001224:	d901      	bls.n	800122a <HAL_RCC_OscConfig+0x52a>
          {
            return HAL_TIMEOUT;
 8001226:	2303      	movs	r3, #3
 8001228:	e079      	b.n	800131e <HAL_RCC_OscConfig+0x61e>
        while(__HAL_RCC_GET_FLAG(RCC_FLAG_PLLRDY)  != RESET)
 800122a:	4b3f      	ldr	r3, [pc, #252]	; (8001328 <HAL_RCC_OscConfig+0x628>)
 800122c:	681a      	ldr	r2, [r3, #0]
 800122e:	2380      	movs	r3, #128	; 0x80
 8001230:	049b      	lsls	r3, r3, #18
 8001232:	4013      	ands	r3, r2
 8001234:	d1f0      	bne.n	8001218 <HAL_RCC_OscConfig+0x518>
          }
        }

        /* Configure the main PLL clock source, predivider and multiplication factor. */
        __HAL_RCC_PLL_CONFIG(RCC_OscInitStruct->PLL.PLLSource,
 8001236:	4b3c      	ldr	r3, [pc, #240]	; (8001328 <HAL_RCC_OscConfig+0x628>)
 8001238:	6adb      	ldr	r3, [r3, #44]	; 0x2c
 800123a:	220f      	movs	r2, #15
 800123c:	4393      	bics	r3, r2
 800123e:	0019      	movs	r1, r3
 8001240:	687b      	ldr	r3, [r7, #4]
 8001242:	6ada      	ldr	r2, [r3, #44]	; 0x2c
 8001244:	4b38      	ldr	r3, [pc, #224]	; (8001328 <HAL_RCC_OscConfig+0x628>)
 8001246:	430a      	orrs	r2, r1
 8001248:	62da      	str	r2, [r3, #44]	; 0x2c
 800124a:	4b37      	ldr	r3, [pc, #220]	; (8001328 <HAL_RCC_OscConfig+0x628>)
 800124c:	685b      	ldr	r3, [r3, #4]
 800124e:	4a3a      	ldr	r2, [pc, #232]	; (8001338 <HAL_RCC_OscConfig+0x638>)
 8001250:	4013      	ands	r3, r2
 8001252:	0019      	movs	r1, r3
 8001254:	687b      	ldr	r3, [r7, #4]
 8001256:	6a9a      	ldr	r2, [r3, #40]	; 0x28
 8001258:	687b      	ldr	r3, [r7, #4]
 800125a:	6a5b      	ldr	r3, [r3, #36]	; 0x24
 800125c:	431a      	orrs	r2, r3
 800125e:	4b32      	ldr	r3, [pc, #200]	; (8001328 <HAL_RCC_OscConfig+0x628>)
 8001260:	430a      	orrs	r2, r1
 8001262:	605a      	str	r2, [r3, #4]
                             RCC_OscInitStruct->PLL.PREDIV,
                             RCC_OscInitStruct->PLL.PLLMUL);
        /* Enable the main PLL. */
        __HAL_RCC_PLL_ENABLE();
 8001264:	4b30      	ldr	r3, [pc, #192]	; (8001328 <HAL_RCC_OscConfig+0x628>)
 8001266:	681a      	ldr	r2, [r3, #0]
 8001268:	4b2f      	ldr	r3, [pc, #188]	; (8001328 <HAL_RCC_OscConfig+0x628>)
 800126a:	2180      	movs	r1, #128	; 0x80
 800126c:	0449      	lsls	r1, r1, #17
 800126e:	430a      	orrs	r2, r1
 8001270:	601a      	str	r2, [r3, #0]
        
        /* Get Start Tick */
        tickstart = HAL_GetTick();
 8001272:	f7ff fa01 	bl	8000678 <HAL_GetTick>
 8001276:	0003      	movs	r3, r0
 8001278:	61bb      	str	r3, [r7, #24]
        
        /* Wait till PLL is ready */
        while(__HAL_RCC_GET_FLAG(RCC_FLAG_PLLRDY)  == RESET)
 800127a:	e008      	b.n	800128e <HAL_RCC_OscConfig+0x58e>
        {
          if((HAL_GetTick() - tickstart ) > PLL_TIMEOUT_VALUE)
 800127c:	f7ff f9fc 	bl	8000678 <HAL_GetTick>
 8001280:	0002      	movs	r2, r0
 8001282:	69bb      	ldr	r3, [r7, #24]
 8001284:	1ad3      	subs	r3, r2, r3
 8001286:	2b02      	cmp	r3, #2
 8001288:	d901      	bls.n	800128e <HAL_RCC_OscConfig+0x58e>
          {
            return HAL_TIMEOUT;
 800128a:	2303      	movs	r3, #3
 800128c:	e047      	b.n	800131e <HAL_RCC_OscConfig+0x61e>
        while(__HAL_RCC_GET_FLAG(RCC_FLAG_PLLRDY)  == RESET)
 800128e:	4b26      	ldr	r3, [pc, #152]	; (8001328 <HAL_RCC_OscConfig+0x628>)
 8001290:	681a      	ldr	r2, [r3, #0]
 8001292:	2380      	movs	r3, #128	; 0x80
 8001294:	049b      	lsls	r3, r3, #18
 8001296:	4013      	ands	r3, r2
 8001298:	d0f0      	beq.n	800127c <HAL_RCC_OscConfig+0x57c>
 800129a:	e03f      	b.n	800131c <HAL_RCC_OscConfig+0x61c>
        }
      }
      else
      {
        /* Disable the main PLL. */
        __HAL_RCC_PLL_DISABLE();
 800129c:	4b22      	ldr	r3, [pc, #136]	; (8001328 <HAL_RCC_OscConfig+0x628>)
 800129e:	681a      	ldr	r2, [r3, #0]
 80012a0:	4b21      	ldr	r3, [pc, #132]	; (8001328 <HAL_RCC_OscConfig+0x628>)
 80012a2:	4924      	ldr	r1, [pc, #144]	; (8001334 <HAL_RCC_OscConfig+0x634>)
 80012a4:	400a      	ands	r2, r1
 80012a6:	601a      	str	r2, [r3, #0]
 
        /* Get Start Tick */
        tickstart = HAL_GetTick();
 80012a8:	f7ff f9e6 	bl	8000678 <HAL_GetTick>
 80012ac:	0003      	movs	r3, r0
 80012ae:	61bb      	str	r3, [r7, #24]
        
        /* Wait till PLL is disabled */  
        while(__HAL_RCC_GET_FLAG(RCC_FLAG_PLLRDY)  != RESET)
 80012b0:	e008      	b.n	80012c4 <HAL_RCC_OscConfig+0x5c4>
        {
          if((HAL_GetTick() - tickstart ) > PLL_TIMEOUT_VALUE)
 80012b2:	f7ff f9e1 	bl	8000678 <HAL_GetTick>
 80012b6:	0002      	movs	r2, r0
 80012b8:	69bb      	ldr	r3, [r7, #24]
 80012ba:	1ad3      	subs	r3, r2, r3
 80012bc:	2b02      	cmp	r3, #2
 80012be:	d901      	bls.n	80012c4 <HAL_RCC_OscConfig+0x5c4>
          {
            return HAL_TIMEOUT;
 80012c0:	2303      	movs	r3, #3
 80012c2:	e02c      	b.n	800131e <HAL_RCC_OscConfig+0x61e>
        while(__HAL_RCC_GET_FLAG(RCC_FLAG_PLLRDY)  != RESET)
 80012c4:	4b18      	ldr	r3, [pc, #96]	; (8001328 <HAL_RCC_OscConfig+0x628>)
 80012c6:	681a      	ldr	r2, [r3, #0]
 80012c8:	2380      	movs	r3, #128	; 0x80
 80012ca:	049b      	lsls	r3, r3, #18
 80012cc:	4013      	ands	r3, r2
 80012ce:	d1f0      	bne.n	80012b2 <HAL_RCC_OscConfig+0x5b2>
 80012d0:	e024      	b.n	800131c <HAL_RCC_OscConfig+0x61c>
      }
    }
    else
    {
      /* Check if there is a request to disable the PLL used as System clock source */
      if((RCC_OscInitStruct->PLL.PLLState) == RCC_PLL_OFF)
 80012d2:	687b      	ldr	r3, [r7, #4]
 80012d4:	6a1b      	ldr	r3, [r3, #32]
 80012d6:	2b01      	cmp	r3, #1
 80012d8:	d101      	bne.n	80012de <HAL_RCC_OscConfig+0x5de>
      {
        return HAL_ERROR;
 80012da:	2301      	movs	r3, #1
 80012dc:	e01f      	b.n	800131e <HAL_RCC_OscConfig+0x61e>
      }
      else
      {
        /* Do not return HAL_ERROR if request repeats the current configuration */
        pll_config  = RCC->CFGR;
 80012de:	4b12      	ldr	r3, [pc, #72]	; (8001328 <HAL_RCC_OscConfig+0x628>)
 80012e0:	685b      	ldr	r3, [r3, #4]
 80012e2:	617b      	str	r3, [r7, #20]
        pll_config2 = RCC->CFGR2;
 80012e4:	4b10      	ldr	r3, [pc, #64]	; (8001328 <HAL_RCC_OscConfig+0x628>)
 80012e6:	6adb      	ldr	r3, [r3, #44]	; 0x2c
 80012e8:	613b      	str	r3, [r7, #16]
        if((READ_BIT(pll_config,  RCC_CFGR_PLLSRC)  != RCC_OscInitStruct->PLL.PLLSource) ||
 80012ea:	697a      	ldr	r2, [r7, #20]
 80012ec:	23c0      	movs	r3, #192	; 0xc0
 80012ee:	025b      	lsls	r3, r3, #9
 80012f0:	401a      	ands	r2, r3
 80012f2:	687b      	ldr	r3, [r7, #4]
 80012f4:	6a5b      	ldr	r3, [r3, #36]	; 0x24
 80012f6:	429a      	cmp	r2, r3
 80012f8:	d10e      	bne.n	8001318 <HAL_RCC_OscConfig+0x618>
           (READ_BIT(pll_config2, RCC_CFGR2_PREDIV) != RCC_OscInitStruct->PLL.PREDIV)    ||
 80012fa:	693b      	ldr	r3, [r7, #16]
 80012fc:	220f      	movs	r2, #15
 80012fe:	401a      	ands	r2, r3
 8001300:	687b      	ldr	r3, [r7, #4]
 8001302:	6adb      	ldr	r3, [r3, #44]	; 0x2c
        if((READ_BIT(pll_config,  RCC_CFGR_PLLSRC)  != RCC_OscInitStruct->PLL.PLLSource) ||
 8001304:	429a      	cmp	r2, r3
 8001306:	d107      	bne.n	8001318 <HAL_RCC_OscConfig+0x618>
           (READ_BIT(pll_config,  RCC_CFGR_PLLMUL)  != RCC_OscInitStruct->PLL.PLLMUL))
 8001308:	697a      	ldr	r2, [r7, #20]
 800130a:	23f0      	movs	r3, #240	; 0xf0
 800130c:	039b      	lsls	r3, r3, #14
 800130e:	401a      	ands	r2, r3
 8001310:	687b      	ldr	r3, [r7, #4]
 8001312:	6a9b      	ldr	r3, [r3, #40]	; 0x28
           (READ_BIT(pll_config2, RCC_CFGR2_PREDIV) != RCC_OscInitStruct->PLL.PREDIV)    ||
 8001314:	429a      	cmp	r2, r3
 8001316:	d001      	beq.n	800131c <HAL_RCC_OscConfig+0x61c>
        {
          return HAL_ERROR;
 8001318:	2301      	movs	r3, #1
 800131a:	e000      	b.n	800131e <HAL_RCC_OscConfig+0x61e>
        }
      }
    }
  }

  return HAL_OK;
 800131c:	2300      	movs	r3, #0
}
 800131e:	0018      	movs	r0, r3
 8001320:	46bd      	mov	sp, r7
 8001322:	b008      	add	sp, #32
 8001324:	bd80      	pop	{r7, pc}
 8001326:	46c0      	nop			; (mov r8, r8)
 8001328:	40021000 	.word	0x40021000
 800132c:	00001388 	.word	0x00001388
 8001330:	efffffff 	.word	0xefffffff
 8001334:	feffffff 	.word	0xfeffffff
 8001338:	ffc27fff 	.word	0xffc27fff

0800133c <HAL_RCC_ClockConfig>:
  *         You can use @ref HAL_RCC_GetClockConfig() function to know which clock is
  *         currently used as system clock source.
  * @retval HAL status
  */
HAL_StatusTypeDef HAL_RCC_ClockConfig(RCC_ClkInitTypeDef  *RCC_ClkInitStruct, uint32_t FLatency)
{
 800133c:	b580      	push	{r7, lr}
 800133e:	b084      	sub	sp, #16
 8001340:	af00      	add	r7, sp, #0
 8001342:	6078      	str	r0, [r7, #4]
 8001344:	6039      	str	r1, [r7, #0]
  uint32_t tickstart;

  /* Check Null pointer */
  if(RCC_ClkInitStruct == NULL)
 8001346:	687b      	ldr	r3, [r7, #4]
 8001348:	2b00      	cmp	r3, #0
 800134a:	d101      	bne.n	8001350 <HAL_RCC_ClockConfig+0x14>
  {
    return HAL_ERROR;
 800134c:	2301      	movs	r3, #1
 800134e:	e0b3      	b.n	80014b8 <HAL_RCC_ClockConfig+0x17c>
  /* To correctly read data from FLASH memory, the number of wait states (LATENCY) 
  must be correctly programmed according to the frequency of the CPU clock 
    (HCLK) of the device. */

  /* Increasing the number of wait states because of higher CPU frequency */
  if(FLatency > __HAL_FLASH_GET_LATENCY())
 8001350:	4b5b      	ldr	r3, [pc, #364]	; (80014c0 <HAL_RCC_ClockConfig+0x184>)
 8001352:	681b      	ldr	r3, [r3, #0]
 8001354:	2201      	movs	r2, #1
 8001356:	4013      	ands	r3, r2
 8001358:	683a      	ldr	r2, [r7, #0]
 800135a:	429a      	cmp	r2, r3
 800135c:	d911      	bls.n	8001382 <HAL_RCC_ClockConfig+0x46>
  {    
    /* Program the new number of wait states to the LATENCY bits in the FLASH_ACR register */
    __HAL_FLASH_SET_LATENCY(FLatency);
 800135e:	4b58      	ldr	r3, [pc, #352]	; (80014c0 <HAL_RCC_ClockConfig+0x184>)
 8001360:	681b      	ldr	r3, [r3, #0]
 8001362:	2201      	movs	r2, #1
 8001364:	4393      	bics	r3, r2
 8001366:	0019      	movs	r1, r3
 8001368:	4b55      	ldr	r3, [pc, #340]	; (80014c0 <HAL_RCC_ClockConfig+0x184>)
 800136a:	683a      	ldr	r2, [r7, #0]
 800136c:	430a      	orrs	r2, r1
 800136e:	601a      	str	r2, [r3, #0]
    
    /* Check that the new number of wait states is taken into account to access the Flash
    memory by reading the FLASH_ACR register */
    if(__HAL_FLASH_GET_LATENCY() != FLatency)
 8001370:	4b53      	ldr	r3, [pc, #332]	; (80014c0 <HAL_RCC_ClockConfig+0x184>)
 8001372:	681b      	ldr	r3, [r3, #0]
 8001374:	2201      	movs	r2, #1
 8001376:	4013      	ands	r3, r2
 8001378:	683a      	ldr	r2, [r7, #0]
 800137a:	429a      	cmp	r2, r3
 800137c:	d001      	beq.n	8001382 <HAL_RCC_ClockConfig+0x46>
    {
      return HAL_ERROR;
 800137e:	2301      	movs	r3, #1
 8001380:	e09a      	b.n	80014b8 <HAL_RCC_ClockConfig+0x17c>
    }
  }

  /*-------------------------- HCLK Configuration --------------------------*/
  if(((RCC_ClkInitStruct->ClockType) & RCC_CLOCKTYPE_HCLK) == RCC_CLOCKTYPE_HCLK)
 8001382:	687b      	ldr	r3, [r7, #4]
 8001384:	681b      	ldr	r3, [r3, #0]
 8001386:	2202      	movs	r2, #2
 8001388:	4013      	ands	r3, r2
 800138a:	d015      	beq.n	80013b8 <HAL_RCC_ClockConfig+0x7c>
  {
    /* Set the highest APB divider in order to ensure that we do not go through
       a non-spec phase whatever we decrease or increase HCLK. */
    if(((RCC_ClkInitStruct->ClockType) & RCC_CLOCKTYPE_PCLK1) == RCC_CLOCKTYPE_PCLK1)
 800138c:	687b      	ldr	r3, [r7, #4]
 800138e:	681b      	ldr	r3, [r3, #0]
 8001390:	2204      	movs	r2, #4
 8001392:	4013      	ands	r3, r2
 8001394:	d006      	beq.n	80013a4 <HAL_RCC_ClockConfig+0x68>
    {
      MODIFY_REG(RCC->CFGR, RCC_CFGR_PPRE, RCC_HCLK_DIV16);
 8001396:	4b4b      	ldr	r3, [pc, #300]	; (80014c4 <HAL_RCC_ClockConfig+0x188>)
 8001398:	685a      	ldr	r2, [r3, #4]
 800139a:	4b4a      	ldr	r3, [pc, #296]	; (80014c4 <HAL_RCC_ClockConfig+0x188>)
 800139c:	21e0      	movs	r1, #224	; 0xe0
 800139e:	00c9      	lsls	r1, r1, #3
 80013a0:	430a      	orrs	r2, r1
 80013a2:	605a      	str	r2, [r3, #4]
    }

    /* Set the new HCLK clock divider */
    assert_param(IS_RCC_HCLK(RCC_ClkInitStruct->AHBCLKDivider));
    MODIFY_REG(RCC->CFGR, RCC_CFGR_HPRE, RCC_ClkInitStruct->AHBCLKDivider);
 80013a4:	4b47      	ldr	r3, [pc, #284]	; (80014c4 <HAL_RCC_ClockConfig+0x188>)
 80013a6:	685b      	ldr	r3, [r3, #4]
 80013a8:	22f0      	movs	r2, #240	; 0xf0
 80013aa:	4393      	bics	r3, r2
 80013ac:	0019      	movs	r1, r3
 80013ae:	687b      	ldr	r3, [r7, #4]
 80013b0:	689a      	ldr	r2, [r3, #8]
 80013b2:	4b44      	ldr	r3, [pc, #272]	; (80014c4 <HAL_RCC_ClockConfig+0x188>)
 80013b4:	430a      	orrs	r2, r1
 80013b6:	605a      	str	r2, [r3, #4]
  }

  /*------------------------- SYSCLK Configuration ---------------------------*/ 
  if(((RCC_ClkInitStruct->ClockType) & RCC_CLOCKTYPE_SYSCLK) == RCC_CLOCKTYPE_SYSCLK)
 80013b8:	687b      	ldr	r3, [r7, #4]
 80013ba:	681b      	ldr	r3, [r3, #0]
 80013bc:	2201      	movs	r2, #1
 80013be:	4013      	ands	r3, r2
 80013c0:	d040      	beq.n	8001444 <HAL_RCC_ClockConfig+0x108>
  {
    assert_param(IS_RCC_SYSCLKSOURCE(RCC_ClkInitStruct->SYSCLKSource));
    
    /* HSE is selected as System Clock Source */
    if(RCC_ClkInitStruct->SYSCLKSource == RCC_SYSCLKSOURCE_HSE)
 80013c2:	687b      	ldr	r3, [r7, #4]
 80013c4:	685b      	ldr	r3, [r3, #4]
 80013c6:	2b01      	cmp	r3, #1
 80013c8:	d107      	bne.n	80013da <HAL_RCC_ClockConfig+0x9e>
    {
      /* Check the HSE ready flag */  
      if(__HAL_RCC_GET_FLAG(RCC_FLAG_HSERDY) == RESET)
 80013ca:	4b3e      	ldr	r3, [pc, #248]	; (80014c4 <HAL_RCC_ClockConfig+0x188>)
 80013cc:	681a      	ldr	r2, [r3, #0]
 80013ce:	2380      	movs	r3, #128	; 0x80
 80013d0:	029b      	lsls	r3, r3, #10
 80013d2:	4013      	ands	r3, r2
 80013d4:	d114      	bne.n	8001400 <HAL_RCC_ClockConfig+0xc4>
      {
        return HAL_ERROR;
 80013d6:	2301      	movs	r3, #1
 80013d8:	e06e      	b.n	80014b8 <HAL_RCC_ClockConfig+0x17c>
      }
    }
    /* PLL is selected as System Clock Source */
    else if(RCC_ClkInitStruct->SYSCLKSource == RCC_SYSCLKSOURCE_PLLCLK)
 80013da:	687b      	ldr	r3, [r7, #4]
 80013dc:	685b      	ldr	r3, [r3, #4]
 80013de:	2b02      	cmp	r3, #2
 80013e0:	d107      	bne.n	80013f2 <HAL_RCC_ClockConfig+0xb6>
    {
      /* Check the PLL ready flag */  
      if(__HAL_RCC_GET_FLAG(RCC_FLAG_PLLRDY) == RESET)
 80013e2:	4b38      	ldr	r3, [pc, #224]	; (80014c4 <HAL_RCC_ClockConfig+0x188>)
 80013e4:	681a      	ldr	r2, [r3, #0]
 80013e6:	2380      	movs	r3, #128	; 0x80
 80013e8:	049b      	lsls	r3, r3, #18
 80013ea:	4013      	ands	r3, r2
 80013ec:	d108      	bne.n	8001400 <HAL_RCC_ClockConfig+0xc4>
      {
        return HAL_ERROR;
 80013ee:	2301      	movs	r3, #1
 80013f0:	e062      	b.n	80014b8 <HAL_RCC_ClockConfig+0x17c>
#endif /* RCC_CFGR_SWS_HSI48 */
    /* HSI is selected as System Clock Source */
    else
    {
      /* Check the HSI ready flag */  
      if(__HAL_RCC_GET_FLAG(RCC_FLAG_HSIRDY) == RESET)
 80013f2:	4b34      	ldr	r3, [pc, #208]	; (80014c4 <HAL_RCC_ClockConfig+0x188>)
 80013f4:	681b      	ldr	r3, [r3, #0]
 80013f6:	2202      	movs	r2, #2
 80013f8:	4013      	ands	r3, r2
 80013fa:	d101      	bne.n	8001400 <HAL_RCC_ClockConfig+0xc4>
      {
        return HAL_ERROR;
 80013fc:	2301      	movs	r3, #1
 80013fe:	e05b      	b.n	80014b8 <HAL_RCC_ClockConfig+0x17c>
      }
    }
    __HAL_RCC_SYSCLK_CONFIG(RCC_ClkInitStruct->SYSCLKSource);
 8001400:	4b30      	ldr	r3, [pc, #192]	; (80014c4 <HAL_RCC_ClockConfig+0x188>)
 8001402:	685b      	ldr	r3, [r3, #4]
 8001404:	2203      	movs	r2, #3
 8001406:	4393      	bics	r3, r2
 8001408:	0019      	movs	r1, r3
 800140a:	687b      	ldr	r3, [r7, #4]
 800140c:	685a      	ldr	r2, [r3, #4]
 800140e:	4b2d      	ldr	r3, [pc, #180]	; (80014c4 <HAL_RCC_ClockConfig+0x188>)
 8001410:	430a      	orrs	r2, r1
 8001412:	605a      	str	r2, [r3, #4]

    /* Get Start Tick */
    tickstart = HAL_GetTick();
 8001414:	f7ff f930 	bl	8000678 <HAL_GetTick>
 8001418:	0003      	movs	r3, r0
 800141a:	60fb      	str	r3, [r7, #12]
    
    while (__HAL_RCC_GET_SYSCLK_SOURCE() != (RCC_ClkInitStruct->SYSCLKSource << RCC_CFGR_SWS_Pos))
 800141c:	e009      	b.n	8001432 <HAL_RCC_ClockConfig+0xf6>
    {
      if((HAL_GetTick() - tickstart ) > CLOCKSWITCH_TIMEOUT_VALUE)
 800141e:	f7ff f92b 	bl	8000678 <HAL_GetTick>
 8001422:	0002      	movs	r2, r0
 8001424:	68fb      	ldr	r3, [r7, #12]
 8001426:	1ad3      	subs	r3, r2, r3
 8001428:	4a27      	ldr	r2, [pc, #156]	; (80014c8 <HAL_RCC_ClockConfig+0x18c>)
 800142a:	4293      	cmp	r3, r2
 800142c:	d901      	bls.n	8001432 <HAL_RCC_ClockConfig+0xf6>
      {
        return HAL_TIMEOUT;
 800142e:	2303      	movs	r3, #3
 8001430:	e042      	b.n	80014b8 <HAL_RCC_ClockConfig+0x17c>
    while (__HAL_RCC_GET_SYSCLK_SOURCE() != (RCC_ClkInitStruct->SYSCLKSource << RCC_CFGR_SWS_Pos))
 8001432:	4b24      	ldr	r3, [pc, #144]	; (80014c4 <HAL_RCC_ClockConfig+0x188>)
 8001434:	685b      	ldr	r3, [r3, #4]
 8001436:	220c      	movs	r2, #12
 8001438:	401a      	ands	r2, r3
 800143a:	687b      	ldr	r3, [r7, #4]
 800143c:	685b      	ldr	r3, [r3, #4]
 800143e:	009b      	lsls	r3, r3, #2
 8001440:	429a      	cmp	r2, r3
 8001442:	d1ec      	bne.n	800141e <HAL_RCC_ClockConfig+0xe2>
      }
    }
  }

  /* Decreasing the number of wait states because of lower CPU frequency */
  if(FLatency < __HAL_FLASH_GET_LATENCY())
 8001444:	4b1e      	ldr	r3, [pc, #120]	; (80014c0 <HAL_RCC_ClockConfig+0x184>)
 8001446:	681b      	ldr	r3, [r3, #0]
 8001448:	2201      	movs	r2, #1
 800144a:	4013      	ands	r3, r2
 800144c:	683a      	ldr	r2, [r7, #0]
 800144e:	429a      	cmp	r2, r3
 8001450:	d211      	bcs.n	8001476 <HAL_RCC_ClockConfig+0x13a>
  {    
    /* Program the new number of wait states to the LATENCY bits in the FLASH_ACR register */
    __HAL_FLASH_SET_LATENCY(FLatency);
 8001452:	4b1b      	ldr	r3, [pc, #108]	; (80014c0 <HAL_RCC_ClockConfig+0x184>)
 8001454:	681b      	ldr	r3, [r3, #0]
 8001456:	2201      	movs	r2, #1
 8001458:	4393      	bics	r3, r2
 800145a:	0019      	movs	r1, r3
 800145c:	4b18      	ldr	r3, [pc, #96]	; (80014c0 <HAL_RCC_ClockConfig+0x184>)
 800145e:	683a      	ldr	r2, [r7, #0]
 8001460:	430a      	orrs	r2, r1
 8001462:	601a      	str	r2, [r3, #0]
    
    /* Check that the new number of wait states is taken into account to access the Flash
    memory by reading the FLASH_ACR register */
    if(__HAL_FLASH_GET_LATENCY() != FLatency)
 8001464:	4b16      	ldr	r3, [pc, #88]	; (80014c0 <HAL_RCC_ClockConfig+0x184>)
 8001466:	681b      	ldr	r3, [r3, #0]
 8001468:	2201      	movs	r2, #1
 800146a:	4013      	ands	r3, r2
 800146c:	683a      	ldr	r2, [r7, #0]
 800146e:	429a      	cmp	r2, r3
 8001470:	d001      	beq.n	8001476 <HAL_RCC_ClockConfig+0x13a>
    {
      return HAL_ERROR;
 8001472:	2301      	movs	r3, #1
 8001474:	e020      	b.n	80014b8 <HAL_RCC_ClockConfig+0x17c>
    }
  }    

  /*-------------------------- PCLK1 Configuration ---------------------------*/ 
  if(((RCC_ClkInitStruct->ClockType) & RCC_CLOCKTYPE_PCLK1) == RCC_CLOCKTYPE_PCLK1)
 8001476:	687b      	ldr	r3, [r7, #4]
 8001478:	681b      	ldr	r3, [r3, #0]
 800147a:	2204      	movs	r2, #4
 800147c:	4013      	ands	r3, r2
 800147e:	d009      	beq.n	8001494 <HAL_RCC_ClockConfig+0x158>
  {
    assert_param(IS_RCC_PCLK(RCC_ClkInitStruct->APB1CLKDivider));
    MODIFY_REG(RCC->CFGR, RCC_CFGR_PPRE, RCC_ClkInitStruct->APB1CLKDivider);
 8001480:	4b10      	ldr	r3, [pc, #64]	; (80014c4 <HAL_RCC_ClockConfig+0x188>)
 8001482:	685b      	ldr	r3, [r3, #4]
 8001484:	4a11      	ldr	r2, [pc, #68]	; (80014cc <HAL_RCC_ClockConfig+0x190>)
 8001486:	4013      	ands	r3, r2
 8001488:	0019      	movs	r1, r3
 800148a:	687b      	ldr	r3, [r7, #4]
 800148c:	68da      	ldr	r2, [r3, #12]
 800148e:	4b0d      	ldr	r3, [pc, #52]	; (80014c4 <HAL_RCC_ClockConfig+0x188>)
 8001490:	430a      	orrs	r2, r1
 8001492:	605a      	str	r2, [r3, #4]
  }
  
  /* Update the SystemCoreClock global variable */
  SystemCoreClock = HAL_RCC_GetSysClockFreq() >> AHBPrescTable[(RCC->CFGR & RCC_CFGR_HPRE)>> RCC_CFGR_HPRE_BITNUMBER];
 8001494:	f000 f820 	bl	80014d8 <HAL_RCC_GetSysClockFreq>
 8001498:	0001      	movs	r1, r0
 800149a:	4b0a      	ldr	r3, [pc, #40]	; (80014c4 <HAL_RCC_ClockConfig+0x188>)
 800149c:	685b      	ldr	r3, [r3, #4]
 800149e:	091b      	lsrs	r3, r3, #4
 80014a0:	220f      	movs	r2, #15
 80014a2:	4013      	ands	r3, r2
 80014a4:	4a0a      	ldr	r2, [pc, #40]	; (80014d0 <HAL_RCC_ClockConfig+0x194>)
 80014a6:	5cd3      	ldrb	r3, [r2, r3]
 80014a8:	000a      	movs	r2, r1
 80014aa:	40da      	lsrs	r2, r3
 80014ac:	4b09      	ldr	r3, [pc, #36]	; (80014d4 <HAL_RCC_ClockConfig+0x198>)
 80014ae:	601a      	str	r2, [r3, #0]

  /* Configure the source of time base considering new system clocks settings*/
  HAL_InitTick (TICK_INT_PRIORITY);
 80014b0:	2000      	movs	r0, #0
 80014b2:	f7ff f89b 	bl	80005ec <HAL_InitTick>
  
  return HAL_OK;
 80014b6:	2300      	movs	r3, #0
}
 80014b8:	0018      	movs	r0, r3
 80014ba:	46bd      	mov	sp, r7
 80014bc:	b004      	add	sp, #16
 80014be:	bd80      	pop	{r7, pc}
 80014c0:	40022000 	.word	0x40022000
 80014c4:	40021000 	.word	0x40021000
 80014c8:	00001388 	.word	0x00001388
 80014cc:	fffff8ff 	.word	0xfffff8ff
 80014d0:	080022ec 	.word	0x080022ec
 80014d4:	20000000 	.word	0x20000000

080014d8 <HAL_RCC_GetSysClockFreq>:
  *         right SYSCLK value. Otherwise, any configuration based on this function will be incorrect.
  *         
  * @retval SYSCLK frequency
  */
uint32_t HAL_RCC_GetSysClockFreq(void)
{
 80014d8:	b590      	push	{r4, r7, lr}
 80014da:	b08f      	sub	sp, #60	; 0x3c
 80014dc:	af00      	add	r7, sp, #0
  const uint8_t aPLLMULFactorTable[16] = { 2U,  3U,  4U,  5U,  6U,  7U,  8U,  9U,
 80014de:	2314      	movs	r3, #20
 80014e0:	18fb      	adds	r3, r7, r3
 80014e2:	4a2c      	ldr	r2, [pc, #176]	; (8001594 <HAL_RCC_GetSysClockFreq+0xbc>)
 80014e4:	ca13      	ldmia	r2!, {r0, r1, r4}
 80014e6:	c313      	stmia	r3!, {r0, r1, r4}
 80014e8:	6812      	ldr	r2, [r2, #0]
 80014ea:	601a      	str	r2, [r3, #0]
                                         10U, 11U, 12U, 13U, 14U, 15U, 16U, 16U};
  const uint8_t aPredivFactorTable[16] = { 1U, 2U,  3U,  4U,  5U,  6U,  7U,  8U,
 80014ec:	1d3b      	adds	r3, r7, #4
 80014ee:	4a2a      	ldr	r2, [pc, #168]	; (8001598 <HAL_RCC_GetSysClockFreq+0xc0>)
 80014f0:	ca13      	ldmia	r2!, {r0, r1, r4}
 80014f2:	c313      	stmia	r3!, {r0, r1, r4}
 80014f4:	6812      	ldr	r2, [r2, #0]
 80014f6:	601a      	str	r2, [r3, #0]
                                           9U,10U, 11U, 12U, 13U, 14U, 15U, 16U};

  uint32_t tmpreg = 0U, prediv = 0U, pllclk = 0U, pllmul = 0U;
 80014f8:	2300      	movs	r3, #0
 80014fa:	62fb      	str	r3, [r7, #44]	; 0x2c
 80014fc:	2300      	movs	r3, #0
 80014fe:	62bb      	str	r3, [r7, #40]	; 0x28
 8001500:	2300      	movs	r3, #0
 8001502:	637b      	str	r3, [r7, #52]	; 0x34
 8001504:	2300      	movs	r3, #0
 8001506:	627b      	str	r3, [r7, #36]	; 0x24
  uint32_t sysclockfreq = 0U;
 8001508:	2300      	movs	r3, #0
 800150a:	633b      	str	r3, [r7, #48]	; 0x30
  
  tmpreg = RCC->CFGR;
 800150c:	4b23      	ldr	r3, [pc, #140]	; (800159c <HAL_RCC_GetSysClockFreq+0xc4>)
 800150e:	685b      	ldr	r3, [r3, #4]
 8001510:	62fb      	str	r3, [r7, #44]	; 0x2c
  
  /* Get SYSCLK source -------------------------------------------------------*/
  switch (tmpreg & RCC_CFGR_SWS)
 8001512:	6afb      	ldr	r3, [r7, #44]	; 0x2c
 8001514:	220c      	movs	r2, #12
 8001516:	4013      	ands	r3, r2
 8001518:	2b04      	cmp	r3, #4
 800151a:	d002      	beq.n	8001522 <HAL_RCC_GetSysClockFreq+0x4a>
 800151c:	2b08      	cmp	r3, #8
 800151e:	d003      	beq.n	8001528 <HAL_RCC_GetSysClockFreq+0x50>
 8001520:	e02f      	b.n	8001582 <HAL_RCC_GetSysClockFreq+0xaa>
  {
    case RCC_SYSCLKSOURCE_STATUS_HSE:  /* HSE used as system clock */
    {
      sysclockfreq = HSE_VALUE;
 8001522:	4b1f      	ldr	r3, [pc, #124]	; (80015a0 <HAL_RCC_GetSysClockFreq+0xc8>)
 8001524:	633b      	str	r3, [r7, #48]	; 0x30
      break;
 8001526:	e02f      	b.n	8001588 <HAL_RCC_GetSysClockFreq+0xb0>
    }
    case RCC_SYSCLKSOURCE_STATUS_PLLCLK:  /* PLL used as system clock */
    {
      pllmul = aPLLMULFactorTable[(uint32_t)(tmpreg & RCC_CFGR_PLLMUL) >> RCC_CFGR_PLLMUL_BITNUMBER];
 8001528:	6afb      	ldr	r3, [r7, #44]	; 0x2c
 800152a:	0c9b      	lsrs	r3, r3, #18
 800152c:	220f      	movs	r2, #15
 800152e:	4013      	ands	r3, r2
 8001530:	2214      	movs	r2, #20
 8001532:	18ba      	adds	r2, r7, r2
 8001534:	5cd3      	ldrb	r3, [r2, r3]
 8001536:	627b      	str	r3, [r7, #36]	; 0x24
      prediv = aPredivFactorTable[(uint32_t)(RCC->CFGR2 & RCC_CFGR2_PREDIV) >> RCC_CFGR2_PREDIV_BITNUMBER];
 8001538:	4b18      	ldr	r3, [pc, #96]	; (800159c <HAL_RCC_GetSysClockFreq+0xc4>)
 800153a:	6adb      	ldr	r3, [r3, #44]	; 0x2c
 800153c:	220f      	movs	r2, #15
 800153e:	4013      	ands	r3, r2
 8001540:	1d3a      	adds	r2, r7, #4
 8001542:	5cd3      	ldrb	r3, [r2, r3]
 8001544:	62bb      	str	r3, [r7, #40]	; 0x28
      if ((tmpreg & RCC_CFGR_PLLSRC) == RCC_PLLSOURCE_HSE)
 8001546:	6afa      	ldr	r2, [r7, #44]	; 0x2c
 8001548:	23c0      	movs	r3, #192	; 0xc0
 800154a:	025b      	lsls	r3, r3, #9
 800154c:	401a      	ands	r2, r3
 800154e:	2380      	movs	r3, #128	; 0x80
 8001550:	025b      	lsls	r3, r3, #9
 8001552:	429a      	cmp	r2, r3
 8001554:	d109      	bne.n	800156a <HAL_RCC_GetSysClockFreq+0x92>
      {
        /* HSE used as PLL clock source : PLLCLK = HSE/PREDIV * PLLMUL */
        pllclk = (uint32_t)((uint64_t) HSE_VALUE / (uint64_t) (prediv)) * ((uint64_t) pllmul);
 8001556:	6ab9      	ldr	r1, [r7, #40]	; 0x28
 8001558:	4811      	ldr	r0, [pc, #68]	; (80015a0 <HAL_RCC_GetSysClockFreq+0xc8>)
 800155a:	f7fe fdd5 	bl	8000108 <__udivsi3>
 800155e:	0003      	movs	r3, r0
 8001560:	001a      	movs	r2, r3
 8001562:	6a7b      	ldr	r3, [r7, #36]	; 0x24
 8001564:	4353      	muls	r3, r2
 8001566:	637b      	str	r3, [r7, #52]	; 0x34
 8001568:	e008      	b.n	800157c <HAL_RCC_GetSysClockFreq+0xa4>
#endif /* RCC_CFGR_PLLSRC_HSI48_PREDIV */
      else
      {
#if  (defined(STM32F042x6) || defined(STM32F048xx) || defined(STM32F070x6) || defined(STM32F071xB) || defined(STM32F072xB) || defined(STM32F078xx) || defined(STM32F070xB) || defined(STM32F091xC) || defined(STM32F098xx) || defined(STM32F030xC))
        /* HSI used as PLL clock source : PLLCLK = HSI/PREDIV * PLLMUL */
        pllclk = (uint32_t)((uint64_t) HSI_VALUE / (uint64_t) (prediv)) * ((uint64_t) pllmul);
 800156a:	6ab9      	ldr	r1, [r7, #40]	; 0x28
 800156c:	480c      	ldr	r0, [pc, #48]	; (80015a0 <HAL_RCC_GetSysClockFreq+0xc8>)
 800156e:	f7fe fdcb 	bl	8000108 <__udivsi3>
 8001572:	0003      	movs	r3, r0
 8001574:	001a      	movs	r2, r3
 8001576:	6a7b      	ldr	r3, [r7, #36]	; 0x24
 8001578:	4353      	muls	r3, r2
 800157a:	637b      	str	r3, [r7, #52]	; 0x34
#else
        /* HSI used as PLL clock source : PLLCLK = HSI/2 * PLLMUL */
        pllclk = (uint32_t)((uint64_t) (HSI_VALUE >> 1U) * ((uint64_t) pllmul));
#endif
      }
      sysclockfreq = pllclk;
 800157c:	6b7b      	ldr	r3, [r7, #52]	; 0x34
 800157e:	633b      	str	r3, [r7, #48]	; 0x30
      break;
 8001580:	e002      	b.n	8001588 <HAL_RCC_GetSysClockFreq+0xb0>
    }
#endif /* RCC_CFGR_SWS_HSI48 */
    case RCC_SYSCLKSOURCE_STATUS_HSI:  /* HSI used as system clock source */
    default: /* HSI used as system clock */
    {
      sysclockfreq = HSI_VALUE;
 8001582:	4b07      	ldr	r3, [pc, #28]	; (80015a0 <HAL_RCC_GetSysClockFreq+0xc8>)
 8001584:	633b      	str	r3, [r7, #48]	; 0x30
      break;
 8001586:	46c0      	nop			; (mov r8, r8)
    }
  }
  return sysclockfreq;
 8001588:	6b3b      	ldr	r3, [r7, #48]	; 0x30
}
 800158a:	0018      	movs	r0, r3
 800158c:	46bd      	mov	sp, r7
 800158e:	b00f      	add	sp, #60	; 0x3c
 8001590:	bd90      	pop	{r4, r7, pc}
 8001592:	46c0      	nop			; (mov r8, r8)
 8001594:	080022cc 	.word	0x080022cc
 8001598:	080022dc 	.word	0x080022dc
 800159c:	40021000 	.word	0x40021000
 80015a0:	007a1200 	.word	0x007a1200

080015a4 <HAL_RCC_GetHCLKFreq>:
  * @note   The SystemCoreClock CMSIS variable is used to store System Clock Frequency 
  *         and updated within this function
  * @retval HCLK frequency
  */
uint32_t HAL_RCC_GetHCLKFreq(void)
{
 80015a4:	b580      	push	{r7, lr}
 80015a6:	af00      	add	r7, sp, #0
  return SystemCoreClock;
 80015a8:	4b02      	ldr	r3, [pc, #8]	; (80015b4 <HAL_RCC_GetHCLKFreq+0x10>)
 80015aa:	681b      	ldr	r3, [r3, #0]
}
 80015ac:	0018      	movs	r0, r3
 80015ae:	46bd      	mov	sp, r7
 80015b0:	bd80      	pop	{r7, pc}
 80015b2:	46c0      	nop			; (mov r8, r8)
 80015b4:	20000000 	.word	0x20000000

080015b8 <HAL_RCC_GetPCLK1Freq>:
  * @note   Each time PCLK1 changes, this function must be called to update the
  *         right PCLK1 value. Otherwise, any configuration based on this function will be incorrect.
  * @retval PCLK1 frequency
  */
uint32_t HAL_RCC_GetPCLK1Freq(void)
{
 80015b8:	b580      	push	{r7, lr}
 80015ba:	af00      	add	r7, sp, #0
  /* Get HCLK source and Compute PCLK1 frequency ---------------------------*/
  return (HAL_RCC_GetHCLKFreq() >> APBPrescTable[(RCC->CFGR & RCC_CFGR_PPRE) >> RCC_CFGR_PPRE_BITNUMBER]);
 80015bc:	f7ff fff2 	bl	80015a4 <HAL_RCC_GetHCLKFreq>
 80015c0:	0001      	movs	r1, r0
 80015c2:	4b06      	ldr	r3, [pc, #24]	; (80015dc <HAL_RCC_GetPCLK1Freq+0x24>)
 80015c4:	685b      	ldr	r3, [r3, #4]
 80015c6:	0a1b      	lsrs	r3, r3, #8
 80015c8:	2207      	movs	r2, #7
 80015ca:	4013      	ands	r3, r2
 80015cc:	4a04      	ldr	r2, [pc, #16]	; (80015e0 <HAL_RCC_GetPCLK1Freq+0x28>)
 80015ce:	5cd3      	ldrb	r3, [r2, r3]
 80015d0:	40d9      	lsrs	r1, r3
 80015d2:	000b      	movs	r3, r1
}    
 80015d4:	0018      	movs	r0, r3
 80015d6:	46bd      	mov	sp, r7
 80015d8:	bd80      	pop	{r7, pc}
 80015da:	46c0      	nop			; (mov r8, r8)
 80015dc:	40021000 	.word	0x40021000
 80015e0:	080022fc 	.word	0x080022fc

080015e4 <HAL_RCCEx_PeriphCLKConfig>:
  *         the backup registers) and RCC_BDCR register are set to their reset values.
  *
  * @retval HAL status
  */
HAL_StatusTypeDef HAL_RCCEx_PeriphCLKConfig(RCC_PeriphCLKInitTypeDef  *PeriphClkInit)
{
 80015e4:	b580      	push	{r7, lr}
 80015e6:	b086      	sub	sp, #24
 80015e8:	af00      	add	r7, sp, #0
 80015ea:	6078      	str	r0, [r7, #4]
  uint32_t tickstart = 0U;
 80015ec:	2300      	movs	r3, #0
 80015ee:	613b      	str	r3, [r7, #16]
  uint32_t temp_reg = 0U;
 80015f0:	2300      	movs	r3, #0
 80015f2:	60fb      	str	r3, [r7, #12]

  /* Check the parameters */
  assert_param(IS_RCC_PERIPHCLOCK(PeriphClkInit->PeriphClockSelection));
  
  /*---------------------------- RTC configuration -------------------------------*/
  if(((PeriphClkInit->PeriphClockSelection) & RCC_PERIPHCLK_RTC) == (RCC_PERIPHCLK_RTC))
 80015f4:	687b      	ldr	r3, [r7, #4]
 80015f6:	681a      	ldr	r2, [r3, #0]
 80015f8:	2380      	movs	r3, #128	; 0x80
 80015fa:	025b      	lsls	r3, r3, #9
 80015fc:	4013      	ands	r3, r2
 80015fe:	d100      	bne.n	8001602 <HAL_RCCEx_PeriphCLKConfig+0x1e>
 8001600:	e08f      	b.n	8001722 <HAL_RCCEx_PeriphCLKConfig+0x13e>
  {
    /* check for RTC Parameters used to output RTCCLK */
    assert_param(IS_RCC_RTCCLKSOURCE(PeriphClkInit->RTCClockSelection));
    
    FlagStatus       pwrclkchanged = RESET;
 8001602:	2317      	movs	r3, #23
 8001604:	18fb      	adds	r3, r7, r3
 8001606:	2200      	movs	r2, #0
 8001608:	701a      	strb	r2, [r3, #0]

    /* As soon as function is called to change RTC clock source, activation of the 
       power domain is done. */
    /* Requires to enable write access to Backup Domain of necessary */
    if(__HAL_RCC_PWR_IS_CLK_DISABLED())
 800160a:	4b5f      	ldr	r3, [pc, #380]	; (8001788 <HAL_RCCEx_PeriphCLKConfig+0x1a4>)
 800160c:	69da      	ldr	r2, [r3, #28]
 800160e:	2380      	movs	r3, #128	; 0x80
 8001610:	055b      	lsls	r3, r3, #21
 8001612:	4013      	ands	r3, r2
 8001614:	d111      	bne.n	800163a <HAL_RCCEx_PeriphCLKConfig+0x56>
    {
    __HAL_RCC_PWR_CLK_ENABLE();
 8001616:	4b5c      	ldr	r3, [pc, #368]	; (8001788 <HAL_RCCEx_PeriphCLKConfig+0x1a4>)
 8001618:	69da      	ldr	r2, [r3, #28]
 800161a:	4b5b      	ldr	r3, [pc, #364]	; (8001788 <HAL_RCCEx_PeriphCLKConfig+0x1a4>)
 800161c:	2180      	movs	r1, #128	; 0x80
 800161e:	0549      	lsls	r1, r1, #21
 8001620:	430a      	orrs	r2, r1
 8001622:	61da      	str	r2, [r3, #28]
 8001624:	4b58      	ldr	r3, [pc, #352]	; (8001788 <HAL_RCCEx_PeriphCLKConfig+0x1a4>)
 8001626:	69da      	ldr	r2, [r3, #28]
 8001628:	2380      	movs	r3, #128	; 0x80
 800162a:	055b      	lsls	r3, r3, #21
 800162c:	4013      	ands	r3, r2
 800162e:	60bb      	str	r3, [r7, #8]
 8001630:	68bb      	ldr	r3, [r7, #8]
      pwrclkchanged = SET;
 8001632:	2317      	movs	r3, #23
 8001634:	18fb      	adds	r3, r7, r3
 8001636:	2201      	movs	r2, #1
 8001638:	701a      	strb	r2, [r3, #0]
    }
    
    if(HAL_IS_BIT_CLR(PWR->CR, PWR_CR_DBP))
 800163a:	4b54      	ldr	r3, [pc, #336]	; (800178c <HAL_RCCEx_PeriphCLKConfig+0x1a8>)
 800163c:	681a      	ldr	r2, [r3, #0]
 800163e:	2380      	movs	r3, #128	; 0x80
 8001640:	005b      	lsls	r3, r3, #1
 8001642:	4013      	ands	r3, r2
 8001644:	d11a      	bne.n	800167c <HAL_RCCEx_PeriphCLKConfig+0x98>
    {
      /* Enable write access to Backup domain */
      SET_BIT(PWR->CR, PWR_CR_DBP);
 8001646:	4b51      	ldr	r3, [pc, #324]	; (800178c <HAL_RCCEx_PeriphCLKConfig+0x1a8>)
 8001648:	681a      	ldr	r2, [r3, #0]
 800164a:	4b50      	ldr	r3, [pc, #320]	; (800178c <HAL_RCCEx_PeriphCLKConfig+0x1a8>)
 800164c:	2180      	movs	r1, #128	; 0x80
 800164e:	0049      	lsls	r1, r1, #1
 8001650:	430a      	orrs	r2, r1
 8001652:	601a      	str	r2, [r3, #0]
      
      /* Wait for Backup domain Write protection disable */
      tickstart = HAL_GetTick();
 8001654:	f7ff f810 	bl	8000678 <HAL_GetTick>
 8001658:	0003      	movs	r3, r0
 800165a:	613b      	str	r3, [r7, #16]
      
      while(HAL_IS_BIT_CLR(PWR->CR, PWR_CR_DBP))
 800165c:	e008      	b.n	8001670 <HAL_RCCEx_PeriphCLKConfig+0x8c>
      {
        if((HAL_GetTick() - tickstart) > RCC_DBP_TIMEOUT_VALUE)
 800165e:	f7ff f80b 	bl	8000678 <HAL_GetTick>
 8001662:	0002      	movs	r2, r0
 8001664:	693b      	ldr	r3, [r7, #16]
 8001666:	1ad3      	subs	r3, r2, r3
 8001668:	2b64      	cmp	r3, #100	; 0x64
 800166a:	d901      	bls.n	8001670 <HAL_RCCEx_PeriphCLKConfig+0x8c>
        {
          return HAL_TIMEOUT;
 800166c:	2303      	movs	r3, #3
 800166e:	e087      	b.n	8001780 <HAL_RCCEx_PeriphCLKConfig+0x19c>
      while(HAL_IS_BIT_CLR(PWR->CR, PWR_CR_DBP))
 8001670:	4b46      	ldr	r3, [pc, #280]	; (800178c <HAL_RCCEx_PeriphCLKConfig+0x1a8>)
 8001672:	681a      	ldr	r2, [r3, #0]
 8001674:	2380      	movs	r3, #128	; 0x80
 8001676:	005b      	lsls	r3, r3, #1
 8001678:	4013      	ands	r3, r2
 800167a:	d0f0      	beq.n	800165e <HAL_RCCEx_PeriphCLKConfig+0x7a>
        }
      }
    }
    
    /* Reset the Backup domain only if the RTC Clock source selection is modified from reset value */ 
    temp_reg = (RCC->BDCR & RCC_BDCR_RTCSEL);
 800167c:	4b42      	ldr	r3, [pc, #264]	; (8001788 <HAL_RCCEx_PeriphCLKConfig+0x1a4>)
 800167e:	6a1a      	ldr	r2, [r3, #32]
 8001680:	23c0      	movs	r3, #192	; 0xc0
 8001682:	009b      	lsls	r3, r3, #2
 8001684:	4013      	ands	r3, r2
 8001686:	60fb      	str	r3, [r7, #12]
    if((temp_reg != 0x00000000U) && (temp_reg != (PeriphClkInit->RTCClockSelection & RCC_BDCR_RTCSEL)))
 8001688:	68fb      	ldr	r3, [r7, #12]
 800168a:	2b00      	cmp	r3, #0
 800168c:	d034      	beq.n	80016f8 <HAL_RCCEx_PeriphCLKConfig+0x114>
 800168e:	687b      	ldr	r3, [r7, #4]
 8001690:	685a      	ldr	r2, [r3, #4]
 8001692:	23c0      	movs	r3, #192	; 0xc0
 8001694:	009b      	lsls	r3, r3, #2
 8001696:	4013      	ands	r3, r2
 8001698:	68fa      	ldr	r2, [r7, #12]
 800169a:	429a      	cmp	r2, r3
 800169c:	d02c      	beq.n	80016f8 <HAL_RCCEx_PeriphCLKConfig+0x114>
    {
      /* Store the content of BDCR register before the reset of Backup Domain */
      temp_reg = (RCC->BDCR & ~(RCC_BDCR_RTCSEL));
 800169e:	4b3a      	ldr	r3, [pc, #232]	; (8001788 <HAL_RCCEx_PeriphCLKConfig+0x1a4>)
 80016a0:	6a1b      	ldr	r3, [r3, #32]
 80016a2:	4a3b      	ldr	r2, [pc, #236]	; (8001790 <HAL_RCCEx_PeriphCLKConfig+0x1ac>)
 80016a4:	4013      	ands	r3, r2
 80016a6:	60fb      	str	r3, [r7, #12]
      /* RTC Clock selection can be changed only if the Backup Domain is reset */
      __HAL_RCC_BACKUPRESET_FORCE();
 80016a8:	4b37      	ldr	r3, [pc, #220]	; (8001788 <HAL_RCCEx_PeriphCLKConfig+0x1a4>)
 80016aa:	6a1a      	ldr	r2, [r3, #32]
 80016ac:	4b36      	ldr	r3, [pc, #216]	; (8001788 <HAL_RCCEx_PeriphCLKConfig+0x1a4>)
 80016ae:	2180      	movs	r1, #128	; 0x80
 80016b0:	0249      	lsls	r1, r1, #9
 80016b2:	430a      	orrs	r2, r1
 80016b4:	621a      	str	r2, [r3, #32]
      __HAL_RCC_BACKUPRESET_RELEASE();
 80016b6:	4b34      	ldr	r3, [pc, #208]	; (8001788 <HAL_RCCEx_PeriphCLKConfig+0x1a4>)
 80016b8:	6a1a      	ldr	r2, [r3, #32]
 80016ba:	4b33      	ldr	r3, [pc, #204]	; (8001788 <HAL_RCCEx_PeriphCLKConfig+0x1a4>)
 80016bc:	4935      	ldr	r1, [pc, #212]	; (8001794 <HAL_RCCEx_PeriphCLKConfig+0x1b0>)
 80016be:	400a      	ands	r2, r1
 80016c0:	621a      	str	r2, [r3, #32]
      /* Restore the Content of BDCR register */
      RCC->BDCR = temp_reg;
 80016c2:	4b31      	ldr	r3, [pc, #196]	; (8001788 <HAL_RCCEx_PeriphCLKConfig+0x1a4>)
 80016c4:	68fa      	ldr	r2, [r7, #12]
 80016c6:	621a      	str	r2, [r3, #32]
      
      /* Wait for LSERDY if LSE was enabled */
      if (HAL_IS_BIT_SET(temp_reg, RCC_BDCR_LSEON))
 80016c8:	68fb      	ldr	r3, [r7, #12]
 80016ca:	2201      	movs	r2, #1
 80016cc:	4013      	ands	r3, r2
 80016ce:	d013      	beq.n	80016f8 <HAL_RCCEx_PeriphCLKConfig+0x114>
      {
        /* Get Start Tick */
        tickstart = HAL_GetTick();
 80016d0:	f7fe ffd2 	bl	8000678 <HAL_GetTick>
 80016d4:	0003      	movs	r3, r0
 80016d6:	613b      	str	r3, [r7, #16]
        
        /* Wait till LSE is ready */  
        while(__HAL_RCC_GET_FLAG(RCC_FLAG_LSERDY) == RESET)
 80016d8:	e009      	b.n	80016ee <HAL_RCCEx_PeriphCLKConfig+0x10a>
        {
          if((HAL_GetTick() - tickstart) > RCC_LSE_TIMEOUT_VALUE)
 80016da:	f7fe ffcd 	bl	8000678 <HAL_GetTick>
 80016de:	0002      	movs	r2, r0
 80016e0:	693b      	ldr	r3, [r7, #16]
 80016e2:	1ad3      	subs	r3, r2, r3
 80016e4:	4a2c      	ldr	r2, [pc, #176]	; (8001798 <HAL_RCCEx_PeriphCLKConfig+0x1b4>)
 80016e6:	4293      	cmp	r3, r2
 80016e8:	d901      	bls.n	80016ee <HAL_RCCEx_PeriphCLKConfig+0x10a>
          {
            return HAL_TIMEOUT;
 80016ea:	2303      	movs	r3, #3
 80016ec:	e048      	b.n	8001780 <HAL_RCCEx_PeriphCLKConfig+0x19c>
        while(__HAL_RCC_GET_FLAG(RCC_FLAG_LSERDY) == RESET)
 80016ee:	4b26      	ldr	r3, [pc, #152]	; (8001788 <HAL_RCCEx_PeriphCLKConfig+0x1a4>)
 80016f0:	6a1b      	ldr	r3, [r3, #32]
 80016f2:	2202      	movs	r2, #2
 80016f4:	4013      	ands	r3, r2
 80016f6:	d0f0      	beq.n	80016da <HAL_RCCEx_PeriphCLKConfig+0xf6>
          }
        }
      }
    }
    __HAL_RCC_RTC_CONFIG(PeriphClkInit->RTCClockSelection);
 80016f8:	4b23      	ldr	r3, [pc, #140]	; (8001788 <HAL_RCCEx_PeriphCLKConfig+0x1a4>)
 80016fa:	6a1b      	ldr	r3, [r3, #32]
 80016fc:	4a24      	ldr	r2, [pc, #144]	; (8001790 <HAL_RCCEx_PeriphCLKConfig+0x1ac>)
 80016fe:	4013      	ands	r3, r2
 8001700:	0019      	movs	r1, r3
 8001702:	687b      	ldr	r3, [r7, #4]
 8001704:	685a      	ldr	r2, [r3, #4]
 8001706:	4b20      	ldr	r3, [pc, #128]	; (8001788 <HAL_RCCEx_PeriphCLKConfig+0x1a4>)
 8001708:	430a      	orrs	r2, r1
 800170a:	621a      	str	r2, [r3, #32]

    /* Require to disable power clock if necessary */
    if(pwrclkchanged == SET)
 800170c:	2317      	movs	r3, #23
 800170e:	18fb      	adds	r3, r7, r3
 8001710:	781b      	ldrb	r3, [r3, #0]
 8001712:	2b01      	cmp	r3, #1
 8001714:	d105      	bne.n	8001722 <HAL_RCCEx_PeriphCLKConfig+0x13e>
    {
      __HAL_RCC_PWR_CLK_DISABLE();
 8001716:	4b1c      	ldr	r3, [pc, #112]	; (8001788 <HAL_RCCEx_PeriphCLKConfig+0x1a4>)
 8001718:	69da      	ldr	r2, [r3, #28]
 800171a:	4b1b      	ldr	r3, [pc, #108]	; (8001788 <HAL_RCCEx_PeriphCLKConfig+0x1a4>)
 800171c:	491f      	ldr	r1, [pc, #124]	; (800179c <HAL_RCCEx_PeriphCLKConfig+0x1b8>)
 800171e:	400a      	ands	r2, r1
 8001720:	61da      	str	r2, [r3, #28]
    }
  }

  /*------------------------------- USART1 Configuration ------------------------*/ 
  if(((PeriphClkInit->PeriphClockSelection) & RCC_PERIPHCLK_USART1) == RCC_PERIPHCLK_USART1)
 8001722:	687b      	ldr	r3, [r7, #4]
 8001724:	681b      	ldr	r3, [r3, #0]
 8001726:	2201      	movs	r2, #1
 8001728:	4013      	ands	r3, r2
 800172a:	d009      	beq.n	8001740 <HAL_RCCEx_PeriphCLKConfig+0x15c>
  {
    /* Check the parameters */
    assert_param(IS_RCC_USART1CLKSOURCE(PeriphClkInit->Usart1ClockSelection));
    
    /* Configure the USART1 clock source */
    __HAL_RCC_USART1_CONFIG(PeriphClkInit->Usart1ClockSelection);
 800172c:	4b16      	ldr	r3, [pc, #88]	; (8001788 <HAL_RCCEx_PeriphCLKConfig+0x1a4>)
 800172e:	6b1b      	ldr	r3, [r3, #48]	; 0x30
 8001730:	2203      	movs	r2, #3
 8001732:	4393      	bics	r3, r2
 8001734:	0019      	movs	r1, r3
 8001736:	687b      	ldr	r3, [r7, #4]
 8001738:	689a      	ldr	r2, [r3, #8]
 800173a:	4b13      	ldr	r3, [pc, #76]	; (8001788 <HAL_RCCEx_PeriphCLKConfig+0x1a4>)
 800173c:	430a      	orrs	r2, r1
 800173e:	631a      	str	r2, [r3, #48]	; 0x30
    __HAL_RCC_USART3_CONFIG(PeriphClkInit->Usart3ClockSelection);
  }
#endif /* STM32F091xC || STM32F098xx */  

  /*------------------------------ I2C1 Configuration ------------------------*/ 
  if(((PeriphClkInit->PeriphClockSelection) & RCC_PERIPHCLK_I2C1) == RCC_PERIPHCLK_I2C1)
 8001740:	687b      	ldr	r3, [r7, #4]
 8001742:	681b      	ldr	r3, [r3, #0]
 8001744:	2220      	movs	r2, #32
 8001746:	4013      	ands	r3, r2
 8001748:	d009      	beq.n	800175e <HAL_RCCEx_PeriphCLKConfig+0x17a>
  {
    /* Check the parameters */
    assert_param(IS_RCC_I2C1CLKSOURCE(PeriphClkInit->I2c1ClockSelection));
    
    /* Configure the I2C1 clock source */
    __HAL_RCC_I2C1_CONFIG(PeriphClkInit->I2c1ClockSelection);
 800174a:	4b0f      	ldr	r3, [pc, #60]	; (8001788 <HAL_RCCEx_PeriphCLKConfig+0x1a4>)
 800174c:	6b1b      	ldr	r3, [r3, #48]	; 0x30
 800174e:	2210      	movs	r2, #16
 8001750:	4393      	bics	r3, r2
 8001752:	0019      	movs	r1, r3
 8001754:	687b      	ldr	r3, [r7, #4]
 8001756:	68da      	ldr	r2, [r3, #12]
 8001758:	4b0b      	ldr	r3, [pc, #44]	; (8001788 <HAL_RCCEx_PeriphCLKConfig+0x1a4>)
 800175a:	430a      	orrs	r2, r1
 800175c:	631a      	str	r2, [r3, #48]	; 0x30
  }

#if defined(STM32F042x6) || defined(STM32F048xx) || defined(STM32F072xB) || defined(STM32F078xx) || defined(STM32F070xB) || defined(STM32F070x6)
  /*------------------------------ USB Configuration ------------------------*/ 
  if(((PeriphClkInit->PeriphClockSelection) & RCC_PERIPHCLK_USB) == RCC_PERIPHCLK_USB)
 800175e:	687b      	ldr	r3, [r7, #4]
 8001760:	681a      	ldr	r2, [r3, #0]
 8001762:	2380      	movs	r3, #128	; 0x80
 8001764:	029b      	lsls	r3, r3, #10
 8001766:	4013      	ands	r3, r2
 8001768:	d009      	beq.n	800177e <HAL_RCCEx_PeriphCLKConfig+0x19a>
  {
    /* Check the parameters */
    assert_param(IS_RCC_USBCLKSOURCE(PeriphClkInit->UsbClockSelection));
    
    /* Configure the USB clock source */
    __HAL_RCC_USB_CONFIG(PeriphClkInit->UsbClockSelection);
 800176a:	4b07      	ldr	r3, [pc, #28]	; (8001788 <HAL_RCCEx_PeriphCLKConfig+0x1a4>)
 800176c:	6b1b      	ldr	r3, [r3, #48]	; 0x30
 800176e:	2280      	movs	r2, #128	; 0x80
 8001770:	4393      	bics	r3, r2
 8001772:	0019      	movs	r1, r3
 8001774:	687b      	ldr	r3, [r7, #4]
 8001776:	691a      	ldr	r2, [r3, #16]
 8001778:	4b03      	ldr	r3, [pc, #12]	; (8001788 <HAL_RCCEx_PeriphCLKConfig+0x1a4>)
 800177a:	430a      	orrs	r2, r1
 800177c:	631a      	str	r2, [r3, #48]	; 0x30
#endif /* STM32F042x6 || STM32F048xx ||                */
       /* STM32F051x8 || STM32F058xx ||                */
       /* STM32F071xB || STM32F072xB || STM32F078xx || */
       /* STM32F091xC || STM32F098xx */
  
  return HAL_OK;
 800177e:	2300      	movs	r3, #0
}
 8001780:	0018      	movs	r0, r3
 8001782:	46bd      	mov	sp, r7
 8001784:	b006      	add	sp, #24
 8001786:	bd80      	pop	{r7, pc}
 8001788:	40021000 	.word	0x40021000
 800178c:	40007000 	.word	0x40007000
 8001790:	fffffcff 	.word	0xfffffcff
 8001794:	fffeffff 	.word	0xfffeffff
 8001798:	00001388 	.word	0x00001388
 800179c:	efffffff 	.word	0xefffffff

080017a0 <HAL_UART_Init>:
  *        parameters in the UART_InitTypeDef and initialize the associated handle.
  * @param huart UART handle.
  * @retval HAL status
  */
HAL_StatusTypeDef HAL_UART_Init(UART_HandleTypeDef *huart)
{
 80017a0:	b580      	push	{r7, lr}
 80017a2:	b082      	sub	sp, #8
 80017a4:	af00      	add	r7, sp, #0
 80017a6:	6078      	str	r0, [r7, #4]
  /* Check the UART handle allocation */
  if (huart == NULL)
 80017a8:	687b      	ldr	r3, [r7, #4]
 80017aa:	2b00      	cmp	r3, #0
 80017ac:	d101      	bne.n	80017b2 <HAL_UART_Init+0x12>
  {
    return HAL_ERROR;
 80017ae:	2301      	movs	r3, #1
 80017b0:	e044      	b.n	800183c <HAL_UART_Init+0x9c>
  {
    /* Check the parameters */
    assert_param(IS_UART_INSTANCE(huart->Instance));
  }

  if (huart->gState == HAL_UART_STATE_RESET)
 80017b2:	687b      	ldr	r3, [r7, #4]
 80017b4:	6f9b      	ldr	r3, [r3, #120]	; 0x78
 80017b6:	2b00      	cmp	r3, #0
 80017b8:	d107      	bne.n	80017ca <HAL_UART_Init+0x2a>
  {
    /* Allocate lock resource and initialize it */
    huart->Lock = HAL_UNLOCKED;
 80017ba:	687b      	ldr	r3, [r7, #4]
 80017bc:	2274      	movs	r2, #116	; 0x74
 80017be:	2100      	movs	r1, #0
 80017c0:	5499      	strb	r1, [r3, r2]

    /* Init the low level hardware */
    huart->MspInitCallback(huart);
#else
    /* Init the low level hardware : GPIO, CLOCK */
    HAL_UART_MspInit(huart);
 80017c2:	687b      	ldr	r3, [r7, #4]
 80017c4:	0018      	movs	r0, r3
 80017c6:	f7fe fe47 	bl	8000458 <HAL_UART_MspInit>
#endif /* (USE_HAL_UART_REGISTER_CALLBACKS) */
  }

  huart->gState = HAL_UART_STATE_BUSY;
 80017ca:	687b      	ldr	r3, [r7, #4]
 80017cc:	2224      	movs	r2, #36	; 0x24
 80017ce:	679a      	str	r2, [r3, #120]	; 0x78

  __HAL_UART_DISABLE(huart);
 80017d0:	687b      	ldr	r3, [r7, #4]
 80017d2:	681b      	ldr	r3, [r3, #0]
 80017d4:	681a      	ldr	r2, [r3, #0]
 80017d6:	687b      	ldr	r3, [r7, #4]
 80017d8:	681b      	ldr	r3, [r3, #0]
 80017da:	2101      	movs	r1, #1
 80017dc:	438a      	bics	r2, r1
 80017de:	601a      	str	r2, [r3, #0]

  /* Set the UART Communication parameters */
  if (UART_SetConfig(huart) == HAL_ERROR)
 80017e0:	687b      	ldr	r3, [r7, #4]
 80017e2:	0018      	movs	r0, r3
 80017e4:	f000 f86a 	bl	80018bc <UART_SetConfig>
 80017e8:	0003      	movs	r3, r0
 80017ea:	2b01      	cmp	r3, #1
 80017ec:	d101      	bne.n	80017f2 <HAL_UART_Init+0x52>
  {
    return HAL_ERROR;
 80017ee:	2301      	movs	r3, #1
 80017f0:	e024      	b.n	800183c <HAL_UART_Init+0x9c>
  }

  if (huart->AdvancedInit.AdvFeatureInit != UART_ADVFEATURE_NO_INIT)
 80017f2:	687b      	ldr	r3, [r7, #4]
 80017f4:	6a5b      	ldr	r3, [r3, #36]	; 0x24
 80017f6:	2b00      	cmp	r3, #0
 80017f8:	d003      	beq.n	8001802 <HAL_UART_Init+0x62>
  {
    UART_AdvFeatureConfig(huart);
 80017fa:	687b      	ldr	r3, [r7, #4]
 80017fc:	0018      	movs	r0, r3
 80017fe:	f000 f9b3 	bl	8001b68 <UART_AdvFeatureConfig>
  - LINEN (if LIN is supported) and CLKEN bits in the USART_CR2 register,
  - SCEN (if Smartcard is supported), HDSEL and IREN (if IrDA is supported)  bits in the USART_CR3 register.*/
#if defined (USART_CR2_LINEN)
  CLEAR_BIT(huart->Instance->CR2, (USART_CR2_LINEN | USART_CR2_CLKEN));
#else
  CLEAR_BIT(huart->Instance->CR2, USART_CR2_CLKEN);
 8001802:	687b      	ldr	r3, [r7, #4]
 8001804:	681b      	ldr	r3, [r3, #0]
 8001806:	685a      	ldr	r2, [r3, #4]
 8001808:	687b      	ldr	r3, [r7, #4]
 800180a:	681b      	ldr	r3, [r3, #0]
 800180c:	490d      	ldr	r1, [pc, #52]	; (8001844 <HAL_UART_Init+0xa4>)
 800180e:	400a      	ands	r2, r1
 8001810:	605a      	str	r2, [r3, #4]
#endif /* USART_CR3_IREN */
#else
#if defined (USART_CR3_IREN)
  CLEAR_BIT(huart->Instance->CR3, (USART_CR3_HDSEL | USART_CR3_IREN));
#else
  CLEAR_BIT(huart->Instance->CR3, USART_CR3_HDSEL);
 8001812:	687b      	ldr	r3, [r7, #4]
 8001814:	681b      	ldr	r3, [r3, #0]
 8001816:	689a      	ldr	r2, [r3, #8]
 8001818:	687b      	ldr	r3, [r7, #4]
 800181a:	681b      	ldr	r3, [r3, #0]
 800181c:	2108      	movs	r1, #8
 800181e:	438a      	bics	r2, r1
 8001820:	609a      	str	r2, [r3, #8]
#endif /* USART_CR3_IREN*/
#endif /* USART_CR3_SCEN */

  __HAL_UART_ENABLE(huart);
 8001822:	687b      	ldr	r3, [r7, #4]
 8001824:	681b      	ldr	r3, [r3, #0]
 8001826:	681a      	ldr	r2, [r3, #0]
 8001828:	687b      	ldr	r3, [r7, #4]
 800182a:	681b      	ldr	r3, [r3, #0]
 800182c:	2101      	movs	r1, #1
 800182e:	430a      	orrs	r2, r1
 8001830:	601a      	str	r2, [r3, #0]

  /* TEACK and/or REACK to check before moving huart->gState and huart->RxState to Ready */
  return (UART_CheckIdleState(huart));
 8001832:	687b      	ldr	r3, [r7, #4]
 8001834:	0018      	movs	r0, r3
 8001836:	f000 fa4b 	bl	8001cd0 <UART_CheckIdleState>
 800183a:	0003      	movs	r3, r0
}
 800183c:	0018      	movs	r0, r3
 800183e:	46bd      	mov	sp, r7
 8001840:	b002      	add	sp, #8
 8001842:	bd80      	pop	{r7, pc}
 8001844:	fffff7ff 	.word	0xfffff7ff

08001848 <HAL_UART_DeInit>:
  * @brief DeInitialize the UART peripheral.
  * @param huart UART handle.
  * @retval HAL status
  */
HAL_StatusTypeDef HAL_UART_DeInit(UART_HandleTypeDef *huart)
{
 8001848:	b580      	push	{r7, lr}
 800184a:	b082      	sub	sp, #8
 800184c:	af00      	add	r7, sp, #0
 800184e:	6078      	str	r0, [r7, #4]
  /* Check the UART handle allocation */
  if (huart == NULL)
 8001850:	687b      	ldr	r3, [r7, #4]
 8001852:	2b00      	cmp	r3, #0
 8001854:	d101      	bne.n	800185a <HAL_UART_DeInit+0x12>
  {
    return HAL_ERROR;
 8001856:	2301      	movs	r3, #1
 8001858:	e02c      	b.n	80018b4 <HAL_UART_DeInit+0x6c>
  }

  /* Check the parameters */
  assert_param(IS_UART_INSTANCE(huart->Instance));

  huart->gState = HAL_UART_STATE_BUSY;
 800185a:	687b      	ldr	r3, [r7, #4]
 800185c:	2224      	movs	r2, #36	; 0x24
 800185e:	679a      	str	r2, [r3, #120]	; 0x78

  __HAL_UART_DISABLE(huart);
 8001860:	687b      	ldr	r3, [r7, #4]
 8001862:	681b      	ldr	r3, [r3, #0]
 8001864:	681a      	ldr	r2, [r3, #0]
 8001866:	687b      	ldr	r3, [r7, #4]
 8001868:	681b      	ldr	r3, [r3, #0]
 800186a:	2101      	movs	r1, #1
 800186c:	438a      	bics	r2, r1
 800186e:	601a      	str	r2, [r3, #0]

  huart->Instance->CR1 = 0x0U;
 8001870:	687b      	ldr	r3, [r7, #4]
 8001872:	681b      	ldr	r3, [r3, #0]
 8001874:	2200      	movs	r2, #0
 8001876:	601a      	str	r2, [r3, #0]
  huart->Instance->CR2 = 0x0U;
 8001878:	687b      	ldr	r3, [r7, #4]
 800187a:	681b      	ldr	r3, [r3, #0]
 800187c:	2200      	movs	r2, #0
 800187e:	605a      	str	r2, [r3, #4]
  huart->Instance->CR3 = 0x0U;
 8001880:	687b      	ldr	r3, [r7, #4]
 8001882:	681b      	ldr	r3, [r3, #0]
 8001884:	2200      	movs	r2, #0
 8001886:	609a      	str	r2, [r3, #8]
  }
  /* DeInit the low level hardware */
  huart->MspDeInitCallback(huart);
#else
  /* DeInit the low level hardware */
  HAL_UART_MspDeInit(huart);
 8001888:	687b      	ldr	r3, [r7, #4]
 800188a:	0018      	movs	r0, r3
 800188c:	f7fe fe32 	bl	80004f4 <HAL_UART_MspDeInit>
#endif /* (USE_HAL_UART_REGISTER_CALLBACKS) */

  huart->ErrorCode = HAL_UART_ERROR_NONE;
 8001890:	687b      	ldr	r3, [r7, #4]
 8001892:	2280      	movs	r2, #128	; 0x80
 8001894:	2100      	movs	r1, #0
 8001896:	5099      	str	r1, [r3, r2]
  huart->gState = HAL_UART_STATE_RESET;
 8001898:	687b      	ldr	r3, [r7, #4]
 800189a:	2200      	movs	r2, #0
 800189c:	679a      	str	r2, [r3, #120]	; 0x78
  huart->RxState = HAL_UART_STATE_RESET;
 800189e:	687b      	ldr	r3, [r7, #4]
 80018a0:	2200      	movs	r2, #0
 80018a2:	67da      	str	r2, [r3, #124]	; 0x7c
  huart->ReceptionType = HAL_UART_RECEPTION_STANDARD;
 80018a4:	687b      	ldr	r3, [r7, #4]
 80018a6:	2200      	movs	r2, #0
 80018a8:	661a      	str	r2, [r3, #96]	; 0x60

  __HAL_UNLOCK(huart);
 80018aa:	687b      	ldr	r3, [r7, #4]
 80018ac:	2274      	movs	r2, #116	; 0x74
 80018ae:	2100      	movs	r1, #0
 80018b0:	5499      	strb	r1, [r3, r2]

  return HAL_OK;
 80018b2:	2300      	movs	r3, #0
}
 80018b4:	0018      	movs	r0, r3
 80018b6:	46bd      	mov	sp, r7
 80018b8:	b002      	add	sp, #8
 80018ba:	bd80      	pop	{r7, pc}

080018bc <UART_SetConfig>:
  * @brief Configure the UART peripheral.
  * @param huart UART handle.
  * @retval HAL status
  */
HAL_StatusTypeDef UART_SetConfig(UART_HandleTypeDef *huart)
{
 80018bc:	b580      	push	{r7, lr}
 80018be:	b088      	sub	sp, #32
 80018c0:	af00      	add	r7, sp, #0
 80018c2:	6078      	str	r0, [r7, #4]
  uint32_t tmpreg;
  uint16_t brrtemp;
  UART_ClockSourceTypeDef clocksource;
  uint32_t usartdiv;
  HAL_StatusTypeDef ret               = HAL_OK;
 80018c4:	231e      	movs	r3, #30
 80018c6:	18fb      	adds	r3, r7, r3
 80018c8:	2200      	movs	r2, #0
 80018ca:	701a      	strb	r2, [r3, #0]
  *  the UART Word Length, Parity, Mode and oversampling:
  *  set the M bits according to huart->Init.WordLength value
  *  set PCE and PS bits according to huart->Init.Parity value
  *  set TE and RE bits according to huart->Init.Mode value
  *  set OVER8 bit according to huart->Init.OverSampling value */
  tmpreg = (uint32_t)huart->Init.WordLength | huart->Init.Parity | huart->Init.Mode | huart->Init.OverSampling ;
 80018cc:	687b      	ldr	r3, [r7, #4]
 80018ce:	689a      	ldr	r2, [r3, #8]
 80018d0:	687b      	ldr	r3, [r7, #4]
 80018d2:	691b      	ldr	r3, [r3, #16]
 80018d4:	431a      	orrs	r2, r3
 80018d6:	687b      	ldr	r3, [r7, #4]
 80018d8:	695b      	ldr	r3, [r3, #20]
 80018da:	431a      	orrs	r2, r3
 80018dc:	687b      	ldr	r3, [r7, #4]
 80018de:	69db      	ldr	r3, [r3, #28]
 80018e0:	4313      	orrs	r3, r2
 80018e2:	617b      	str	r3, [r7, #20]
  MODIFY_REG(huart->Instance->CR1, USART_CR1_FIELDS, tmpreg);
 80018e4:	687b      	ldr	r3, [r7, #4]
 80018e6:	681b      	ldr	r3, [r3, #0]
 80018e8:	681b      	ldr	r3, [r3, #0]
 80018ea:	4a95      	ldr	r2, [pc, #596]	; (8001b40 <UART_SetConfig+0x284>)
 80018ec:	4013      	ands	r3, r2
 80018ee:	0019      	movs	r1, r3
 80018f0:	687b      	ldr	r3, [r7, #4]
 80018f2:	681b      	ldr	r3, [r3, #0]
 80018f4:	697a      	ldr	r2, [r7, #20]
 80018f6:	430a      	orrs	r2, r1
 80018f8:	601a      	str	r2, [r3, #0]

  /*-------------------------- USART CR2 Configuration -----------------------*/
  /* Configure the UART Stop Bits: Set STOP[13:12] bits according
  * to huart->Init.StopBits value */
  MODIFY_REG(huart->Instance->CR2, USART_CR2_STOP, huart->Init.StopBits);
 80018fa:	687b      	ldr	r3, [r7, #4]
 80018fc:	681b      	ldr	r3, [r3, #0]
 80018fe:	685b      	ldr	r3, [r3, #4]
 8001900:	4a90      	ldr	r2, [pc, #576]	; (8001b44 <UART_SetConfig+0x288>)
 8001902:	4013      	ands	r3, r2
 8001904:	0019      	movs	r1, r3
 8001906:	687b      	ldr	r3, [r7, #4]
 8001908:	68da      	ldr	r2, [r3, #12]
 800190a:	687b      	ldr	r3, [r7, #4]
 800190c:	681b      	ldr	r3, [r3, #0]
 800190e:	430a      	orrs	r2, r1
 8001910:	605a      	str	r2, [r3, #4]
  /* Configure
  * - UART HardWare Flow Control: set CTSE and RTSE bits according
  *   to huart->Init.HwFlowCtl value
  * - one-bit sampling method versus three samples' majority rule according
  *   to huart->Init.OneBitSampling (not applicable to LPUART) */
  tmpreg = (uint32_t)huart->Init.HwFlowCtl;
 8001912:	687b      	ldr	r3, [r7, #4]
 8001914:	699b      	ldr	r3, [r3, #24]
 8001916:	617b      	str	r3, [r7, #20]

  tmpreg |= huart->Init.OneBitSampling;
 8001918:	687b      	ldr	r3, [r7, #4]
 800191a:	6a1b      	ldr	r3, [r3, #32]
 800191c:	697a      	ldr	r2, [r7, #20]
 800191e:	4313      	orrs	r3, r2
 8001920:	617b      	str	r3, [r7, #20]
  MODIFY_REG(huart->Instance->CR3, USART_CR3_FIELDS, tmpreg);
 8001922:	687b      	ldr	r3, [r7, #4]
 8001924:	681b      	ldr	r3, [r3, #0]
 8001926:	689b      	ldr	r3, [r3, #8]
 8001928:	4a87      	ldr	r2, [pc, #540]	; (8001b48 <UART_SetConfig+0x28c>)
 800192a:	4013      	ands	r3, r2
 800192c:	0019      	movs	r1, r3
 800192e:	687b      	ldr	r3, [r7, #4]
 8001930:	681b      	ldr	r3, [r3, #0]
 8001932:	697a      	ldr	r2, [r7, #20]
 8001934:	430a      	orrs	r2, r1
 8001936:	609a      	str	r2, [r3, #8]


  /*-------------------------- USART BRR Configuration -----------------------*/
  UART_GETCLOCKSOURCE(huart, clocksource);
 8001938:	687b      	ldr	r3, [r7, #4]
 800193a:	681b      	ldr	r3, [r3, #0]
 800193c:	4a83      	ldr	r2, [pc, #524]	; (8001b4c <UART_SetConfig+0x290>)
 800193e:	4293      	cmp	r3, r2
 8001940:	d125      	bne.n	800198e <UART_SetConfig+0xd2>
 8001942:	4b83      	ldr	r3, [pc, #524]	; (8001b50 <UART_SetConfig+0x294>)
 8001944:	6b1b      	ldr	r3, [r3, #48]	; 0x30
 8001946:	2203      	movs	r2, #3
 8001948:	4013      	ands	r3, r2
 800194a:	2b01      	cmp	r3, #1
 800194c:	d00f      	beq.n	800196e <UART_SetConfig+0xb2>
 800194e:	d304      	bcc.n	800195a <UART_SetConfig+0x9e>
 8001950:	2b02      	cmp	r3, #2
 8001952:	d011      	beq.n	8001978 <UART_SetConfig+0xbc>
 8001954:	2b03      	cmp	r3, #3
 8001956:	d005      	beq.n	8001964 <UART_SetConfig+0xa8>
 8001958:	e013      	b.n	8001982 <UART_SetConfig+0xc6>
 800195a:	231f      	movs	r3, #31
 800195c:	18fb      	adds	r3, r7, r3
 800195e:	2200      	movs	r2, #0
 8001960:	701a      	strb	r2, [r3, #0]
 8001962:	e036      	b.n	80019d2 <UART_SetConfig+0x116>
 8001964:	231f      	movs	r3, #31
 8001966:	18fb      	adds	r3, r7, r3
 8001968:	2202      	movs	r2, #2
 800196a:	701a      	strb	r2, [r3, #0]
 800196c:	e031      	b.n	80019d2 <UART_SetConfig+0x116>
 800196e:	231f      	movs	r3, #31
 8001970:	18fb      	adds	r3, r7, r3
 8001972:	2204      	movs	r2, #4
 8001974:	701a      	strb	r2, [r3, #0]
 8001976:	e02c      	b.n	80019d2 <UART_SetConfig+0x116>
 8001978:	231f      	movs	r3, #31
 800197a:	18fb      	adds	r3, r7, r3
 800197c:	2208      	movs	r2, #8
 800197e:	701a      	strb	r2, [r3, #0]
 8001980:	e027      	b.n	80019d2 <UART_SetConfig+0x116>
 8001982:	231f      	movs	r3, #31
 8001984:	18fb      	adds	r3, r7, r3
 8001986:	2210      	movs	r2, #16
 8001988:	701a      	strb	r2, [r3, #0]
 800198a:	46c0      	nop			; (mov r8, r8)
 800198c:	e021      	b.n	80019d2 <UART_SetConfig+0x116>
 800198e:	687b      	ldr	r3, [r7, #4]
 8001990:	681b      	ldr	r3, [r3, #0]
 8001992:	4a70      	ldr	r2, [pc, #448]	; (8001b54 <UART_SetConfig+0x298>)
 8001994:	4293      	cmp	r3, r2
 8001996:	d104      	bne.n	80019a2 <UART_SetConfig+0xe6>
 8001998:	231f      	movs	r3, #31
 800199a:	18fb      	adds	r3, r7, r3
 800199c:	2200      	movs	r2, #0
 800199e:	701a      	strb	r2, [r3, #0]
 80019a0:	e017      	b.n	80019d2 <UART_SetConfig+0x116>
 80019a2:	687b      	ldr	r3, [r7, #4]
 80019a4:	681b      	ldr	r3, [r3, #0]
 80019a6:	4a6c      	ldr	r2, [pc, #432]	; (8001b58 <UART_SetConfig+0x29c>)
 80019a8:	4293      	cmp	r3, r2
 80019aa:	d104      	bne.n	80019b6 <UART_SetConfig+0xfa>
 80019ac:	231f      	movs	r3, #31
 80019ae:	18fb      	adds	r3, r7, r3
 80019b0:	2200      	movs	r2, #0
 80019b2:	701a      	strb	r2, [r3, #0]
 80019b4:	e00d      	b.n	80019d2 <UART_SetConfig+0x116>
 80019b6:	687b      	ldr	r3, [r7, #4]
 80019b8:	681b      	ldr	r3, [r3, #0]
 80019ba:	4a68      	ldr	r2, [pc, #416]	; (8001b5c <UART_SetConfig+0x2a0>)
 80019bc:	4293      	cmp	r3, r2
 80019be:	d104      	bne.n	80019ca <UART_SetConfig+0x10e>
 80019c0:	231f      	movs	r3, #31
 80019c2:	18fb      	adds	r3, r7, r3
 80019c4:	2200      	movs	r2, #0
 80019c6:	701a      	strb	r2, [r3, #0]
 80019c8:	e003      	b.n	80019d2 <UART_SetConfig+0x116>
 80019ca:	231f      	movs	r3, #31
 80019cc:	18fb      	adds	r3, r7, r3
 80019ce:	2210      	movs	r2, #16
 80019d0:	701a      	strb	r2, [r3, #0]

  if (huart->Init.OverSampling == UART_OVERSAMPLING_8)
 80019d2:	687b      	ldr	r3, [r7, #4]
 80019d4:	69da      	ldr	r2, [r3, #28]
 80019d6:	2380      	movs	r3, #128	; 0x80
 80019d8:	021b      	lsls	r3, r3, #8
 80019da:	429a      	cmp	r2, r3
 80019dc:	d15c      	bne.n	8001a98 <UART_SetConfig+0x1dc>
  {
    switch (clocksource)
 80019de:	231f      	movs	r3, #31
 80019e0:	18fb      	adds	r3, r7, r3
 80019e2:	781b      	ldrb	r3, [r3, #0]
 80019e4:	2b02      	cmp	r3, #2
 80019e6:	d00d      	beq.n	8001a04 <UART_SetConfig+0x148>
 80019e8:	dc02      	bgt.n	80019f0 <UART_SetConfig+0x134>
 80019ea:	2b00      	cmp	r3, #0
 80019ec:	d005      	beq.n	80019fa <UART_SetConfig+0x13e>
 80019ee:	e015      	b.n	8001a1c <UART_SetConfig+0x160>
 80019f0:	2b04      	cmp	r3, #4
 80019f2:	d00a      	beq.n	8001a0a <UART_SetConfig+0x14e>
 80019f4:	2b08      	cmp	r3, #8
 80019f6:	d00d      	beq.n	8001a14 <UART_SetConfig+0x158>
 80019f8:	e010      	b.n	8001a1c <UART_SetConfig+0x160>
    {
      case UART_CLOCKSOURCE_PCLK1:
        pclk = HAL_RCC_GetPCLK1Freq();
 80019fa:	f7ff fddd 	bl	80015b8 <HAL_RCC_GetPCLK1Freq>
 80019fe:	0003      	movs	r3, r0
 8001a00:	61bb      	str	r3, [r7, #24]
        break;
 8001a02:	e012      	b.n	8001a2a <UART_SetConfig+0x16e>
      case UART_CLOCKSOURCE_HSI:
        pclk = (uint32_t) HSI_VALUE;
 8001a04:	4b56      	ldr	r3, [pc, #344]	; (8001b60 <UART_SetConfig+0x2a4>)
 8001a06:	61bb      	str	r3, [r7, #24]
        break;
 8001a08:	e00f      	b.n	8001a2a <UART_SetConfig+0x16e>
      case UART_CLOCKSOURCE_SYSCLK:
        pclk = HAL_RCC_GetSysClockFreq();
 8001a0a:	f7ff fd65 	bl	80014d8 <HAL_RCC_GetSysClockFreq>
 8001a0e:	0003      	movs	r3, r0
 8001a10:	61bb      	str	r3, [r7, #24]
        break;
 8001a12:	e00a      	b.n	8001a2a <UART_SetConfig+0x16e>
      case UART_CLOCKSOURCE_LSE:
        pclk = (uint32_t) LSE_VALUE;
 8001a14:	2380      	movs	r3, #128	; 0x80
 8001a16:	021b      	lsls	r3, r3, #8
 8001a18:	61bb      	str	r3, [r7, #24]
        break;
 8001a1a:	e006      	b.n	8001a2a <UART_SetConfig+0x16e>
      default:
        pclk = 0U;
 8001a1c:	2300      	movs	r3, #0
 8001a1e:	61bb      	str	r3, [r7, #24]
        ret = HAL_ERROR;
 8001a20:	231e      	movs	r3, #30
 8001a22:	18fb      	adds	r3, r7, r3
 8001a24:	2201      	movs	r2, #1
 8001a26:	701a      	strb	r2, [r3, #0]
        break;
 8001a28:	46c0      	nop			; (mov r8, r8)
    }

    /* USARTDIV must be greater than or equal to 0d16 */
    if (pclk != 0U)
 8001a2a:	69bb      	ldr	r3, [r7, #24]
 8001a2c:	2b00      	cmp	r3, #0
 8001a2e:	d100      	bne.n	8001a32 <UART_SetConfig+0x176>
 8001a30:	e079      	b.n	8001b26 <UART_SetConfig+0x26a>
    {
      usartdiv = (uint16_t)(UART_DIV_SAMPLING8(pclk, huart->Init.BaudRate));
 8001a32:	69bb      	ldr	r3, [r7, #24]
 8001a34:	005a      	lsls	r2, r3, #1
 8001a36:	687b      	ldr	r3, [r7, #4]
 8001a38:	685b      	ldr	r3, [r3, #4]
 8001a3a:	085b      	lsrs	r3, r3, #1
 8001a3c:	18d2      	adds	r2, r2, r3
 8001a3e:	687b      	ldr	r3, [r7, #4]
 8001a40:	685b      	ldr	r3, [r3, #4]
 8001a42:	0019      	movs	r1, r3
 8001a44:	0010      	movs	r0, r2
 8001a46:	f7fe fb5f 	bl	8000108 <__udivsi3>
 8001a4a:	0003      	movs	r3, r0
 8001a4c:	b29b      	uxth	r3, r3
 8001a4e:	613b      	str	r3, [r7, #16]
      if ((usartdiv >= UART_BRR_MIN) && (usartdiv <= UART_BRR_MAX))
 8001a50:	693b      	ldr	r3, [r7, #16]
 8001a52:	2b0f      	cmp	r3, #15
 8001a54:	d91b      	bls.n	8001a8e <UART_SetConfig+0x1d2>
 8001a56:	693b      	ldr	r3, [r7, #16]
 8001a58:	4a42      	ldr	r2, [pc, #264]	; (8001b64 <UART_SetConfig+0x2a8>)
 8001a5a:	4293      	cmp	r3, r2
 8001a5c:	d817      	bhi.n	8001a8e <UART_SetConfig+0x1d2>
      {
        brrtemp = (uint16_t)(usartdiv & 0xFFF0U);
 8001a5e:	693b      	ldr	r3, [r7, #16]
 8001a60:	b29a      	uxth	r2, r3
 8001a62:	200e      	movs	r0, #14
 8001a64:	183b      	adds	r3, r7, r0
 8001a66:	210f      	movs	r1, #15
 8001a68:	438a      	bics	r2, r1
 8001a6a:	801a      	strh	r2, [r3, #0]
        brrtemp |= (uint16_t)((usartdiv & (uint16_t)0x000FU) >> 1U);
 8001a6c:	693b      	ldr	r3, [r7, #16]
 8001a6e:	085b      	lsrs	r3, r3, #1
 8001a70:	b29b      	uxth	r3, r3
 8001a72:	2207      	movs	r2, #7
 8001a74:	4013      	ands	r3, r2
 8001a76:	b299      	uxth	r1, r3
 8001a78:	183b      	adds	r3, r7, r0
 8001a7a:	183a      	adds	r2, r7, r0
 8001a7c:	8812      	ldrh	r2, [r2, #0]
 8001a7e:	430a      	orrs	r2, r1
 8001a80:	801a      	strh	r2, [r3, #0]
        huart->Instance->BRR = brrtemp;
 8001a82:	687b      	ldr	r3, [r7, #4]
 8001a84:	681b      	ldr	r3, [r3, #0]
 8001a86:	183a      	adds	r2, r7, r0
 8001a88:	8812      	ldrh	r2, [r2, #0]
 8001a8a:	60da      	str	r2, [r3, #12]
 8001a8c:	e04b      	b.n	8001b26 <UART_SetConfig+0x26a>
      }
      else
      {
        ret = HAL_ERROR;
 8001a8e:	231e      	movs	r3, #30
 8001a90:	18fb      	adds	r3, r7, r3
 8001a92:	2201      	movs	r2, #1
 8001a94:	701a      	strb	r2, [r3, #0]
 8001a96:	e046      	b.n	8001b26 <UART_SetConfig+0x26a>
      }
    }
  }
  else
  {
    switch (clocksource)
 8001a98:	231f      	movs	r3, #31
 8001a9a:	18fb      	adds	r3, r7, r3
 8001a9c:	781b      	ldrb	r3, [r3, #0]
 8001a9e:	2b02      	cmp	r3, #2
 8001aa0:	d00d      	beq.n	8001abe <UART_SetConfig+0x202>
 8001aa2:	dc02      	bgt.n	8001aaa <UART_SetConfig+0x1ee>
 8001aa4:	2b00      	cmp	r3, #0
 8001aa6:	d005      	beq.n	8001ab4 <UART_SetConfig+0x1f8>
 8001aa8:	e015      	b.n	8001ad6 <UART_SetConfig+0x21a>
 8001aaa:	2b04      	cmp	r3, #4
 8001aac:	d00a      	beq.n	8001ac4 <UART_SetConfig+0x208>
 8001aae:	2b08      	cmp	r3, #8
 8001ab0:	d00d      	beq.n	8001ace <UART_SetConfig+0x212>
 8001ab2:	e010      	b.n	8001ad6 <UART_SetConfig+0x21a>
    {
      case UART_CLOCKSOURCE_PCLK1:
        pclk = HAL_RCC_GetPCLK1Freq();
 8001ab4:	f7ff fd80 	bl	80015b8 <HAL_RCC_GetPCLK1Freq>
 8001ab8:	0003      	movs	r3, r0
 8001aba:	61bb      	str	r3, [r7, #24]
        break;
 8001abc:	e012      	b.n	8001ae4 <UART_SetConfig+0x228>
      case UART_CLOCKSOURCE_HSI:
        pclk = (uint32_t) HSI_VALUE;
 8001abe:	4b28      	ldr	r3, [pc, #160]	; (8001b60 <UART_SetConfig+0x2a4>)
 8001ac0:	61bb      	str	r3, [r7, #24]
        break;
 8001ac2:	e00f      	b.n	8001ae4 <UART_SetConfig+0x228>
      case UART_CLOCKSOURCE_SYSCLK:
        pclk = HAL_RCC_GetSysClockFreq();
 8001ac4:	f7ff fd08 	bl	80014d8 <HAL_RCC_GetSysClockFreq>
 8001ac8:	0003      	movs	r3, r0
 8001aca:	61bb      	str	r3, [r7, #24]
        break;
 8001acc:	e00a      	b.n	8001ae4 <UART_SetConfig+0x228>
      case UART_CLOCKSOURCE_LSE:
        pclk = (uint32_t) LSE_VALUE;
 8001ace:	2380      	movs	r3, #128	; 0x80
 8001ad0:	021b      	lsls	r3, r3, #8
 8001ad2:	61bb      	str	r3, [r7, #24]
        break;
 8001ad4:	e006      	b.n	8001ae4 <UART_SetConfig+0x228>
      default:
        pclk = 0U;
 8001ad6:	2300      	movs	r3, #0
 8001ad8:	61bb      	str	r3, [r7, #24]
        ret = HAL_ERROR;
 8001ada:	231e      	movs	r3, #30
 8001adc:	18fb      	adds	r3, r7, r3
 8001ade:	2201      	movs	r2, #1
 8001ae0:	701a      	strb	r2, [r3, #0]
        break;
 8001ae2:	46c0      	nop			; (mov r8, r8)
    }

    if (pclk != 0U)
 8001ae4:	69bb      	ldr	r3, [r7, #24]
 8001ae6:	2b00      	cmp	r3, #0
 8001ae8:	d01d      	beq.n	8001b26 <UART_SetConfig+0x26a>
    {
      /* USARTDIV must be greater than or equal to 0d16 */
      usartdiv = (uint16_t)(UART_DIV_SAMPLING16(pclk, huart->Init.BaudRate));
 8001aea:	687b      	ldr	r3, [r7, #4]
 8001aec:	685b      	ldr	r3, [r3, #4]
 8001aee:	085a      	lsrs	r2, r3, #1
 8001af0:	69bb      	ldr	r3, [r7, #24]
 8001af2:	18d2      	adds	r2, r2, r3
 8001af4:	687b      	ldr	r3, [r7, #4]
 8001af6:	685b      	ldr	r3, [r3, #4]
 8001af8:	0019      	movs	r1, r3
 8001afa:	0010      	movs	r0, r2
 8001afc:	f7fe fb04 	bl	8000108 <__udivsi3>
 8001b00:	0003      	movs	r3, r0
 8001b02:	b29b      	uxth	r3, r3
 8001b04:	613b      	str	r3, [r7, #16]
      if ((usartdiv >= UART_BRR_MIN) && (usartdiv <= UART_BRR_MAX))
 8001b06:	693b      	ldr	r3, [r7, #16]
 8001b08:	2b0f      	cmp	r3, #15
 8001b0a:	d908      	bls.n	8001b1e <UART_SetConfig+0x262>
 8001b0c:	693b      	ldr	r3, [r7, #16]
 8001b0e:	4a15      	ldr	r2, [pc, #84]	; (8001b64 <UART_SetConfig+0x2a8>)
 8001b10:	4293      	cmp	r3, r2
 8001b12:	d804      	bhi.n	8001b1e <UART_SetConfig+0x262>
      {
        huart->Instance->BRR = usartdiv;
 8001b14:	687b      	ldr	r3, [r7, #4]
 8001b16:	681b      	ldr	r3, [r3, #0]
 8001b18:	693a      	ldr	r2, [r7, #16]
 8001b1a:	60da      	str	r2, [r3, #12]
 8001b1c:	e003      	b.n	8001b26 <UART_SetConfig+0x26a>
      }
      else
      {
        ret = HAL_ERROR;
 8001b1e:	231e      	movs	r3, #30
 8001b20:	18fb      	adds	r3, r7, r3
 8001b22:	2201      	movs	r2, #1
 8001b24:	701a      	strb	r2, [r3, #0]
    }
  }


  /* Clear ISR function pointers */
  huart->RxISR = NULL;
 8001b26:	687b      	ldr	r3, [r7, #4]
 8001b28:	2200      	movs	r2, #0
 8001b2a:	665a      	str	r2, [r3, #100]	; 0x64
  huart->TxISR = NULL;
 8001b2c:	687b      	ldr	r3, [r7, #4]
 8001b2e:	2200      	movs	r2, #0
 8001b30:	669a      	str	r2, [r3, #104]	; 0x68

  return ret;
 8001b32:	231e      	movs	r3, #30
 8001b34:	18fb      	adds	r3, r7, r3
 8001b36:	781b      	ldrb	r3, [r3, #0]
}
 8001b38:	0018      	movs	r0, r3
 8001b3a:	46bd      	mov	sp, r7
 8001b3c:	b008      	add	sp, #32
 8001b3e:	bd80      	pop	{r7, pc}
 8001b40:	efff69f3 	.word	0xefff69f3
 8001b44:	ffffcfff 	.word	0xffffcfff
 8001b48:	fffff4ff 	.word	0xfffff4ff
 8001b4c:	40013800 	.word	0x40013800
 8001b50:	40021000 	.word	0x40021000
 8001b54:	40004400 	.word	0x40004400
 8001b58:	40004800 	.word	0x40004800
 8001b5c:	40004c00 	.word	0x40004c00
 8001b60:	007a1200 	.word	0x007a1200
 8001b64:	0000ffff 	.word	0x0000ffff

08001b68 <UART_AdvFeatureConfig>:
  * @brief Configure the UART peripheral advanced features.
  * @param huart UART handle.
  * @retval None
  */
void UART_AdvFeatureConfig(UART_HandleTypeDef *huart)
{
 8001b68:	b580      	push	{r7, lr}
 8001b6a:	b082      	sub	sp, #8
 8001b6c:	af00      	add	r7, sp, #0
 8001b6e:	6078      	str	r0, [r7, #4]
  /* Check whether the set of advanced features to configure is properly set */
  assert_param(IS_UART_ADVFEATURE_INIT(huart->AdvancedInit.AdvFeatureInit));

  /* if required, configure TX pin active level inversion */
  if (HAL_IS_BIT_SET(huart->AdvancedInit.AdvFeatureInit, UART_ADVFEATURE_TXINVERT_INIT))
 8001b70:	687b      	ldr	r3, [r7, #4]
 8001b72:	6a5b      	ldr	r3, [r3, #36]	; 0x24
 8001b74:	2201      	movs	r2, #1
 8001b76:	4013      	ands	r3, r2
 8001b78:	d00b      	beq.n	8001b92 <UART_AdvFeatureConfig+0x2a>
  {
    assert_param(IS_UART_ADVFEATURE_TXINV(huart->AdvancedInit.TxPinLevelInvert));
    MODIFY_REG(huart->Instance->CR2, USART_CR2_TXINV, huart->AdvancedInit.TxPinLevelInvert);
 8001b7a:	687b      	ldr	r3, [r7, #4]
 8001b7c:	681b      	ldr	r3, [r3, #0]
 8001b7e:	685b      	ldr	r3, [r3, #4]
 8001b80:	4a4a      	ldr	r2, [pc, #296]	; (8001cac <UART_AdvFeatureConfig+0x144>)
 8001b82:	4013      	ands	r3, r2
 8001b84:	0019      	movs	r1, r3
 8001b86:	687b      	ldr	r3, [r7, #4]
 8001b88:	6a9a      	ldr	r2, [r3, #40]	; 0x28
 8001b8a:	687b      	ldr	r3, [r7, #4]
 8001b8c:	681b      	ldr	r3, [r3, #0]
 8001b8e:	430a      	orrs	r2, r1
 8001b90:	605a      	str	r2, [r3, #4]
  }

  /* if required, configure RX pin active level inversion */
  if (HAL_IS_BIT_SET(huart->AdvancedInit.AdvFeatureInit, UART_ADVFEATURE_RXINVERT_INIT))
 8001b92:	687b      	ldr	r3, [r7, #4]
 8001b94:	6a5b      	ldr	r3, [r3, #36]	; 0x24
 8001b96:	2202      	movs	r2, #2
 8001b98:	4013      	ands	r3, r2
 8001b9a:	d00b      	beq.n	8001bb4 <UART_AdvFeatureConfig+0x4c>
  {
    assert_param(IS_UART_ADVFEATURE_RXINV(huart->AdvancedInit.RxPinLevelInvert));
    MODIFY_REG(huart->Instance->CR2, USART_CR2_RXINV, huart->AdvancedInit.RxPinLevelInvert);
 8001b9c:	687b      	ldr	r3, [r7, #4]
 8001b9e:	681b      	ldr	r3, [r3, #0]
 8001ba0:	685b      	ldr	r3, [r3, #4]
 8001ba2:	4a43      	ldr	r2, [pc, #268]	; (8001cb0 <UART_AdvFeatureConfig+0x148>)
 8001ba4:	4013      	ands	r3, r2
 8001ba6:	0019      	movs	r1, r3
 8001ba8:	687b      	ldr	r3, [r7, #4]
 8001baa:	6ada      	ldr	r2, [r3, #44]	; 0x2c
 8001bac:	687b      	ldr	r3, [r7, #4]
 8001bae:	681b      	ldr	r3, [r3, #0]
 8001bb0:	430a      	orrs	r2, r1
 8001bb2:	605a      	str	r2, [r3, #4]
  }

  /* if required, configure data inversion */
  if (HAL_IS_BIT_SET(huart->AdvancedInit.AdvFeatureInit, UART_ADVFEATURE_DATAINVERT_INIT))
 8001bb4:	687b      	ldr	r3, [r7, #4]
 8001bb6:	6a5b      	ldr	r3, [r3, #36]	; 0x24
 8001bb8:	2204      	movs	r2, #4
 8001bba:	4013      	ands	r3, r2
 8001bbc:	d00b      	beq.n	8001bd6 <UART_AdvFeatureConfig+0x6e>
  {
    assert_param(IS_UART_ADVFEATURE_DATAINV(huart->AdvancedInit.DataInvert));
    MODIFY_REG(huart->Instance->CR2, USART_CR2_DATAINV, huart->AdvancedInit.DataInvert);
 8001bbe:	687b      	ldr	r3, [r7, #4]
 8001bc0:	681b      	ldr	r3, [r3, #0]
 8001bc2:	685b      	ldr	r3, [r3, #4]
 8001bc4:	4a3b      	ldr	r2, [pc, #236]	; (8001cb4 <UART_AdvFeatureConfig+0x14c>)
 8001bc6:	4013      	ands	r3, r2
 8001bc8:	0019      	movs	r1, r3
 8001bca:	687b      	ldr	r3, [r7, #4]
 8001bcc:	6b1a      	ldr	r2, [r3, #48]	; 0x30
 8001bce:	687b      	ldr	r3, [r7, #4]
 8001bd0:	681b      	ldr	r3, [r3, #0]
 8001bd2:	430a      	orrs	r2, r1
 8001bd4:	605a      	str	r2, [r3, #4]
  }

  /* if required, configure RX/TX pins swap */
  if (HAL_IS_BIT_SET(huart->AdvancedInit.AdvFeatureInit, UART_ADVFEATURE_SWAP_INIT))
 8001bd6:	687b      	ldr	r3, [r7, #4]
 8001bd8:	6a5b      	ldr	r3, [r3, #36]	; 0x24
 8001bda:	2208      	movs	r2, #8
 8001bdc:	4013      	ands	r3, r2
 8001bde:	d00b      	beq.n	8001bf8 <UART_AdvFeatureConfig+0x90>
  {
    assert_param(IS_UART_ADVFEATURE_SWAP(huart->AdvancedInit.Swap));
    MODIFY_REG(huart->Instance->CR2, USART_CR2_SWAP, huart->AdvancedInit.Swap);
 8001be0:	687b      	ldr	r3, [r7, #4]
 8001be2:	681b      	ldr	r3, [r3, #0]
 8001be4:	685b      	ldr	r3, [r3, #4]
 8001be6:	4a34      	ldr	r2, [pc, #208]	; (8001cb8 <UART_AdvFeatureConfig+0x150>)
 8001be8:	4013      	ands	r3, r2
 8001bea:	0019      	movs	r1, r3
 8001bec:	687b      	ldr	r3, [r7, #4]
 8001bee:	6b5a      	ldr	r2, [r3, #52]	; 0x34
 8001bf0:	687b      	ldr	r3, [r7, #4]
 8001bf2:	681b      	ldr	r3, [r3, #0]
 8001bf4:	430a      	orrs	r2, r1
 8001bf6:	605a      	str	r2, [r3, #4]
  }

  /* if required, configure RX overrun detection disabling */
  if (HAL_IS_BIT_SET(huart->AdvancedInit.AdvFeatureInit, UART_ADVFEATURE_RXOVERRUNDISABLE_INIT))
 8001bf8:	687b      	ldr	r3, [r7, #4]
 8001bfa:	6a5b      	ldr	r3, [r3, #36]	; 0x24
 8001bfc:	2210      	movs	r2, #16
 8001bfe:	4013      	ands	r3, r2
 8001c00:	d00b      	beq.n	8001c1a <UART_AdvFeatureConfig+0xb2>
  {
    assert_param(IS_UART_OVERRUN(huart->AdvancedInit.OverrunDisable));
    MODIFY_REG(huart->Instance->CR3, USART_CR3_OVRDIS, huart->AdvancedInit.OverrunDisable);
 8001c02:	687b      	ldr	r3, [r7, #4]
 8001c04:	681b      	ldr	r3, [r3, #0]
 8001c06:	689b      	ldr	r3, [r3, #8]
 8001c08:	4a2c      	ldr	r2, [pc, #176]	; (8001cbc <UART_AdvFeatureConfig+0x154>)
 8001c0a:	4013      	ands	r3, r2
 8001c0c:	0019      	movs	r1, r3
 8001c0e:	687b      	ldr	r3, [r7, #4]
 8001c10:	6b9a      	ldr	r2, [r3, #56]	; 0x38
 8001c12:	687b      	ldr	r3, [r7, #4]
 8001c14:	681b      	ldr	r3, [r3, #0]
 8001c16:	430a      	orrs	r2, r1
 8001c18:	609a      	str	r2, [r3, #8]
  }

  /* if required, configure DMA disabling on reception error */
  if (HAL_IS_BIT_SET(huart->AdvancedInit.AdvFeatureInit, UART_ADVFEATURE_DMADISABLEONERROR_INIT))
 8001c1a:	687b      	ldr	r3, [r7, #4]
 8001c1c:	6a5b      	ldr	r3, [r3, #36]	; 0x24
 8001c1e:	2220      	movs	r2, #32
 8001c20:	4013      	ands	r3, r2
 8001c22:	d00b      	beq.n	8001c3c <UART_AdvFeatureConfig+0xd4>
  {
    assert_param(IS_UART_ADVFEATURE_DMAONRXERROR(huart->AdvancedInit.DMADisableonRxError));
    MODIFY_REG(huart->Instance->CR3, USART_CR3_DDRE, huart->AdvancedInit.DMADisableonRxError);
 8001c24:	687b      	ldr	r3, [r7, #4]
 8001c26:	681b      	ldr	r3, [r3, #0]
 8001c28:	689b      	ldr	r3, [r3, #8]
 8001c2a:	4a25      	ldr	r2, [pc, #148]	; (8001cc0 <UART_AdvFeatureConfig+0x158>)
 8001c2c:	4013      	ands	r3, r2
 8001c2e:	0019      	movs	r1, r3
 8001c30:	687b      	ldr	r3, [r7, #4]
 8001c32:	6bda      	ldr	r2, [r3, #60]	; 0x3c
 8001c34:	687b      	ldr	r3, [r7, #4]
 8001c36:	681b      	ldr	r3, [r3, #0]
 8001c38:	430a      	orrs	r2, r1
 8001c3a:	609a      	str	r2, [r3, #8]
  }

  /* if required, configure auto Baud rate detection scheme */
  if (HAL_IS_BIT_SET(huart->AdvancedInit.AdvFeatureInit, UART_ADVFEATURE_AUTOBAUDRATE_INIT))
 8001c3c:	687b      	ldr	r3, [r7, #4]
 8001c3e:	6a5b      	ldr	r3, [r3, #36]	; 0x24
 8001c40:	2240      	movs	r2, #64	; 0x40
 8001c42:	4013      	ands	r3, r2
 8001c44:	d01d      	beq.n	8001c82 <UART_AdvFeatureConfig+0x11a>
  {
    assert_param(IS_USART_AUTOBAUDRATE_DETECTION_INSTANCE(huart->Instance));
    assert_param(IS_UART_ADVFEATURE_AUTOBAUDRATE(huart->AdvancedInit.AutoBaudRateEnable));
    MODIFY_REG(huart->Instance->CR2, USART_CR2_ABREN, huart->AdvancedInit.AutoBaudRateEnable);
 8001c46:	687b      	ldr	r3, [r7, #4]
 8001c48:	681b      	ldr	r3, [r3, #0]
 8001c4a:	685b      	ldr	r3, [r3, #4]
 8001c4c:	4a1d      	ldr	r2, [pc, #116]	; (8001cc4 <UART_AdvFeatureConfig+0x15c>)
 8001c4e:	4013      	ands	r3, r2
 8001c50:	0019      	movs	r1, r3
 8001c52:	687b      	ldr	r3, [r7, #4]
 8001c54:	6c1a      	ldr	r2, [r3, #64]	; 0x40
 8001c56:	687b      	ldr	r3, [r7, #4]
 8001c58:	681b      	ldr	r3, [r3, #0]
 8001c5a:	430a      	orrs	r2, r1
 8001c5c:	605a      	str	r2, [r3, #4]
    /* set auto Baudrate detection parameters if detection is enabled */
    if (huart->AdvancedInit.AutoBaudRateEnable == UART_ADVFEATURE_AUTOBAUDRATE_ENABLE)
 8001c5e:	687b      	ldr	r3, [r7, #4]
 8001c60:	6c1a      	ldr	r2, [r3, #64]	; 0x40
 8001c62:	2380      	movs	r3, #128	; 0x80
 8001c64:	035b      	lsls	r3, r3, #13
 8001c66:	429a      	cmp	r2, r3
 8001c68:	d10b      	bne.n	8001c82 <UART_AdvFeatureConfig+0x11a>
    {
      assert_param(IS_UART_ADVFEATURE_AUTOBAUDRATEMODE(huart->AdvancedInit.AutoBaudRateMode));
      MODIFY_REG(huart->Instance->CR2, USART_CR2_ABRMODE, huart->AdvancedInit.AutoBaudRateMode);
 8001c6a:	687b      	ldr	r3, [r7, #4]
 8001c6c:	681b      	ldr	r3, [r3, #0]
 8001c6e:	685b      	ldr	r3, [r3, #4]
 8001c70:	4a15      	ldr	r2, [pc, #84]	; (8001cc8 <UART_AdvFeatureConfig+0x160>)
 8001c72:	4013      	ands	r3, r2
 8001c74:	0019      	movs	r1, r3
 8001c76:	687b      	ldr	r3, [r7, #4]
 8001c78:	6c5a      	ldr	r2, [r3, #68]	; 0x44
 8001c7a:	687b      	ldr	r3, [r7, #4]
 8001c7c:	681b      	ldr	r3, [r3, #0]
 8001c7e:	430a      	orrs	r2, r1
 8001c80:	605a      	str	r2, [r3, #4]
    }
  }

  /* if required, configure MSB first on communication line */
  if (HAL_IS_BIT_SET(huart->AdvancedInit.AdvFeatureInit, UART_ADVFEATURE_MSBFIRST_INIT))
 8001c82:	687b      	ldr	r3, [r7, #4]
 8001c84:	6a5b      	ldr	r3, [r3, #36]	; 0x24
 8001c86:	2280      	movs	r2, #128	; 0x80
 8001c88:	4013      	ands	r3, r2
 8001c8a:	d00b      	beq.n	8001ca4 <UART_AdvFeatureConfig+0x13c>
  {
    assert_param(IS_UART_ADVFEATURE_MSBFIRST(huart->AdvancedInit.MSBFirst));
    MODIFY_REG(huart->Instance->CR2, USART_CR2_MSBFIRST, huart->AdvancedInit.MSBFirst);
 8001c8c:	687b      	ldr	r3, [r7, #4]
 8001c8e:	681b      	ldr	r3, [r3, #0]
 8001c90:	685b      	ldr	r3, [r3, #4]
 8001c92:	4a0e      	ldr	r2, [pc, #56]	; (8001ccc <UART_AdvFeatureConfig+0x164>)
 8001c94:	4013      	ands	r3, r2
 8001c96:	0019      	movs	r1, r3
 8001c98:	687b      	ldr	r3, [r7, #4]
 8001c9a:	6c9a      	ldr	r2, [r3, #72]	; 0x48
 8001c9c:	687b      	ldr	r3, [r7, #4]
 8001c9e:	681b      	ldr	r3, [r3, #0]
 8001ca0:	430a      	orrs	r2, r1
 8001ca2:	605a      	str	r2, [r3, #4]
  }
}
 8001ca4:	46c0      	nop			; (mov r8, r8)
 8001ca6:	46bd      	mov	sp, r7
 8001ca8:	b002      	add	sp, #8
 8001caa:	bd80      	pop	{r7, pc}
 8001cac:	fffdffff 	.word	0xfffdffff
 8001cb0:	fffeffff 	.word	0xfffeffff
 8001cb4:	fffbffff 	.word	0xfffbffff
 8001cb8:	ffff7fff 	.word	0xffff7fff
 8001cbc:	ffffefff 	.word	0xffffefff
 8001cc0:	ffffdfff 	.word	0xffffdfff
 8001cc4:	ffefffff 	.word	0xffefffff
 8001cc8:	ff9fffff 	.word	0xff9fffff
 8001ccc:	fff7ffff 	.word	0xfff7ffff

08001cd0 <UART_CheckIdleState>:
  * @brief Check the UART Idle State.
  * @param huart UART handle.
  * @retval HAL status
  */
HAL_StatusTypeDef UART_CheckIdleState(UART_HandleTypeDef *huart)
{
 8001cd0:	b580      	push	{r7, lr}
 8001cd2:	b086      	sub	sp, #24
 8001cd4:	af02      	add	r7, sp, #8
 8001cd6:	6078      	str	r0, [r7, #4]
  uint32_t tickstart;

  /* Initialize the UART ErrorCode */
  huart->ErrorCode = HAL_UART_ERROR_NONE;
 8001cd8:	687b      	ldr	r3, [r7, #4]
 8001cda:	2280      	movs	r2, #128	; 0x80
 8001cdc:	2100      	movs	r1, #0
 8001cde:	5099      	str	r1, [r3, r2]

  /* Init tickstart for timeout management */
  tickstart = HAL_GetTick();
 8001ce0:	f7fe fcca 	bl	8000678 <HAL_GetTick>
 8001ce4:	0003      	movs	r3, r0
 8001ce6:	60fb      	str	r3, [r7, #12]

  /* Check if the Transmitter is enabled */
  if ((huart->Instance->CR1 & USART_CR1_TE) == USART_CR1_TE)
 8001ce8:	687b      	ldr	r3, [r7, #4]
 8001cea:	681b      	ldr	r3, [r3, #0]
 8001cec:	681b      	ldr	r3, [r3, #0]
 8001cee:	2208      	movs	r2, #8
 8001cf0:	4013      	ands	r3, r2
 8001cf2:	2b08      	cmp	r3, #8
 8001cf4:	d10d      	bne.n	8001d12 <UART_CheckIdleState+0x42>
  {
    /* Wait until TEACK flag is set */
    if (UART_WaitOnFlagUntilTimeout(huart, USART_ISR_TEACK, RESET, tickstart, HAL_UART_TIMEOUT_VALUE) != HAL_OK)
 8001cf6:	68fa      	ldr	r2, [r7, #12]
 8001cf8:	2380      	movs	r3, #128	; 0x80
 8001cfa:	0399      	lsls	r1, r3, #14
 8001cfc:	6878      	ldr	r0, [r7, #4]
 8001cfe:	4b18      	ldr	r3, [pc, #96]	; (8001d60 <UART_CheckIdleState+0x90>)
 8001d00:	9300      	str	r3, [sp, #0]
 8001d02:	0013      	movs	r3, r2
 8001d04:	2200      	movs	r2, #0
 8001d06:	f000 f82d 	bl	8001d64 <UART_WaitOnFlagUntilTimeout>
 8001d0a:	1e03      	subs	r3, r0, #0
 8001d0c:	d001      	beq.n	8001d12 <UART_CheckIdleState+0x42>
    {
      /* Timeout occurred */
      return HAL_TIMEOUT;
 8001d0e:	2303      	movs	r3, #3
 8001d10:	e022      	b.n	8001d58 <UART_CheckIdleState+0x88>
    }
  }

  /* Check if the Receiver is enabled */
  if ((huart->Instance->CR1 & USART_CR1_RE) == USART_CR1_RE)
 8001d12:	687b      	ldr	r3, [r7, #4]
 8001d14:	681b      	ldr	r3, [r3, #0]
 8001d16:	681b      	ldr	r3, [r3, #0]
 8001d18:	2204      	movs	r2, #4
 8001d1a:	4013      	ands	r3, r2
 8001d1c:	2b04      	cmp	r3, #4
 8001d1e:	d10d      	bne.n	8001d3c <UART_CheckIdleState+0x6c>
  {
    /* Wait until REACK flag is set */
    if (UART_WaitOnFlagUntilTimeout(huart, USART_ISR_REACK, RESET, tickstart, HAL_UART_TIMEOUT_VALUE) != HAL_OK)
 8001d20:	68fa      	ldr	r2, [r7, #12]
 8001d22:	2380      	movs	r3, #128	; 0x80
 8001d24:	03d9      	lsls	r1, r3, #15
 8001d26:	6878      	ldr	r0, [r7, #4]
 8001d28:	4b0d      	ldr	r3, [pc, #52]	; (8001d60 <UART_CheckIdleState+0x90>)
 8001d2a:	9300      	str	r3, [sp, #0]
 8001d2c:	0013      	movs	r3, r2
 8001d2e:	2200      	movs	r2, #0
 8001d30:	f000 f818 	bl	8001d64 <UART_WaitOnFlagUntilTimeout>
 8001d34:	1e03      	subs	r3, r0, #0
 8001d36:	d001      	beq.n	8001d3c <UART_CheckIdleState+0x6c>
    {
      /* Timeout occurred */
      return HAL_TIMEOUT;
 8001d38:	2303      	movs	r3, #3
 8001d3a:	e00d      	b.n	8001d58 <UART_CheckIdleState+0x88>
    }
  }

  /* Initialize the UART State */
  huart->gState = HAL_UART_STATE_READY;
 8001d3c:	687b      	ldr	r3, [r7, #4]
 8001d3e:	2220      	movs	r2, #32
 8001d40:	679a      	str	r2, [r3, #120]	; 0x78
  huart->RxState = HAL_UART_STATE_READY;
 8001d42:	687b      	ldr	r3, [r7, #4]
 8001d44:	2220      	movs	r2, #32
 8001d46:	67da      	str	r2, [r3, #124]	; 0x7c
  huart->ReceptionType = HAL_UART_RECEPTION_STANDARD;
 8001d48:	687b      	ldr	r3, [r7, #4]
 8001d4a:	2200      	movs	r2, #0
 8001d4c:	661a      	str	r2, [r3, #96]	; 0x60

  __HAL_UNLOCK(huart);
 8001d4e:	687b      	ldr	r3, [r7, #4]
 8001d50:	2274      	movs	r2, #116	; 0x74
 8001d52:	2100      	movs	r1, #0
 8001d54:	5499      	strb	r1, [r3, r2]

  return HAL_OK;
 8001d56:	2300      	movs	r3, #0
}
 8001d58:	0018      	movs	r0, r3
 8001d5a:	46bd      	mov	sp, r7
 8001d5c:	b004      	add	sp, #16
 8001d5e:	bd80      	pop	{r7, pc}
 8001d60:	01ffffff 	.word	0x01ffffff

08001d64 <UART_WaitOnFlagUntilTimeout>:
  * @param Timeout   Timeout duration
  * @retval HAL status
  */
HAL_StatusTypeDef UART_WaitOnFlagUntilTimeout(UART_HandleTypeDef *huart, uint32_t Flag, FlagStatus Status,
                                              uint32_t Tickstart, uint32_t Timeout)
{
 8001d64:	b580      	push	{r7, lr}
 8001d66:	b084      	sub	sp, #16
 8001d68:	af00      	add	r7, sp, #0
 8001d6a:	60f8      	str	r0, [r7, #12]
 8001d6c:	60b9      	str	r1, [r7, #8]
 8001d6e:	603b      	str	r3, [r7, #0]
 8001d70:	1dfb      	adds	r3, r7, #7
 8001d72:	701a      	strb	r2, [r3, #0]
  /* Wait until flag is set */
  while ((__HAL_UART_GET_FLAG(huart, Flag) ? SET : RESET) == Status)
 8001d74:	e05e      	b.n	8001e34 <UART_WaitOnFlagUntilTimeout+0xd0>
  {
    /* Check for the Timeout */
    if (Timeout != HAL_MAX_DELAY)
 8001d76:	69bb      	ldr	r3, [r7, #24]
 8001d78:	3301      	adds	r3, #1
 8001d7a:	d05b      	beq.n	8001e34 <UART_WaitOnFlagUntilTimeout+0xd0>
    {
      if (((HAL_GetTick() - Tickstart) > Timeout) || (Timeout == 0U))
 8001d7c:	f7fe fc7c 	bl	8000678 <HAL_GetTick>
 8001d80:	0002      	movs	r2, r0
 8001d82:	683b      	ldr	r3, [r7, #0]
 8001d84:	1ad3      	subs	r3, r2, r3
 8001d86:	69ba      	ldr	r2, [r7, #24]
 8001d88:	429a      	cmp	r2, r3
 8001d8a:	d302      	bcc.n	8001d92 <UART_WaitOnFlagUntilTimeout+0x2e>
 8001d8c:	69bb      	ldr	r3, [r7, #24]
 8001d8e:	2b00      	cmp	r3, #0
 8001d90:	d11b      	bne.n	8001dca <UART_WaitOnFlagUntilTimeout+0x66>
      {
        /* Disable TXE, RXNE, PE and ERR (Frame error, noise error, overrun error)
           interrupts for the interrupt process */
        CLEAR_BIT(huart->Instance->CR1, (USART_CR1_RXNEIE | USART_CR1_PEIE | USART_CR1_TXEIE));
 8001d92:	68fb      	ldr	r3, [r7, #12]
 8001d94:	681b      	ldr	r3, [r3, #0]
 8001d96:	681a      	ldr	r2, [r3, #0]
 8001d98:	68fb      	ldr	r3, [r7, #12]
 8001d9a:	681b      	ldr	r3, [r3, #0]
 8001d9c:	492f      	ldr	r1, [pc, #188]	; (8001e5c <UART_WaitOnFlagUntilTimeout+0xf8>)
 8001d9e:	400a      	ands	r2, r1
 8001da0:	601a      	str	r2, [r3, #0]
        CLEAR_BIT(huart->Instance->CR3, USART_CR3_EIE);
 8001da2:	68fb      	ldr	r3, [r7, #12]
 8001da4:	681b      	ldr	r3, [r3, #0]
 8001da6:	689a      	ldr	r2, [r3, #8]
 8001da8:	68fb      	ldr	r3, [r7, #12]
 8001daa:	681b      	ldr	r3, [r3, #0]
 8001dac:	2101      	movs	r1, #1
 8001dae:	438a      	bics	r2, r1
 8001db0:	609a      	str	r2, [r3, #8]

        huart->gState = HAL_UART_STATE_READY;
 8001db2:	68fb      	ldr	r3, [r7, #12]
 8001db4:	2220      	movs	r2, #32
 8001db6:	679a      	str	r2, [r3, #120]	; 0x78
        huart->RxState = HAL_UART_STATE_READY;
 8001db8:	68fb      	ldr	r3, [r7, #12]
 8001dba:	2220      	movs	r2, #32
 8001dbc:	67da      	str	r2, [r3, #124]	; 0x7c

        __HAL_UNLOCK(huart);
 8001dbe:	68fb      	ldr	r3, [r7, #12]
 8001dc0:	2274      	movs	r2, #116	; 0x74
 8001dc2:	2100      	movs	r1, #0
 8001dc4:	5499      	strb	r1, [r3, r2]

        return HAL_TIMEOUT;
 8001dc6:	2303      	movs	r3, #3
 8001dc8:	e044      	b.n	8001e54 <UART_WaitOnFlagUntilTimeout+0xf0>
      }

      if (READ_BIT(huart->Instance->CR1, USART_CR1_RE) != 0U)
 8001dca:	68fb      	ldr	r3, [r7, #12]
 8001dcc:	681b      	ldr	r3, [r3, #0]
 8001dce:	681b      	ldr	r3, [r3, #0]
 8001dd0:	2204      	movs	r2, #4
 8001dd2:	4013      	ands	r3, r2
 8001dd4:	d02e      	beq.n	8001e34 <UART_WaitOnFlagUntilTimeout+0xd0>
      {
        if (__HAL_UART_GET_FLAG(huart, UART_FLAG_RTOF) == SET)
 8001dd6:	68fb      	ldr	r3, [r7, #12]
 8001dd8:	681b      	ldr	r3, [r3, #0]
 8001dda:	69da      	ldr	r2, [r3, #28]
 8001ddc:	2380      	movs	r3, #128	; 0x80
 8001dde:	011b      	lsls	r3, r3, #4
 8001de0:	401a      	ands	r2, r3
 8001de2:	2380      	movs	r3, #128	; 0x80
 8001de4:	011b      	lsls	r3, r3, #4
 8001de6:	429a      	cmp	r2, r3
 8001de8:	d124      	bne.n	8001e34 <UART_WaitOnFlagUntilTimeout+0xd0>
        {
          /* Clear Receiver Timeout flag*/
          __HAL_UART_CLEAR_FLAG(huart, UART_CLEAR_RTOF);
 8001dea:	68fb      	ldr	r3, [r7, #12]
 8001dec:	681b      	ldr	r3, [r3, #0]
 8001dee:	2280      	movs	r2, #128	; 0x80
 8001df0:	0112      	lsls	r2, r2, #4
 8001df2:	621a      	str	r2, [r3, #32]

          /* Disable TXE, RXNE, PE and ERR (Frame error, noise error, overrun error)
             interrupts for the interrupt process */
          CLEAR_BIT(huart->Instance->CR1, (USART_CR1_RXNEIE | USART_CR1_PEIE | USART_CR1_TXEIE));
 8001df4:	68fb      	ldr	r3, [r7, #12]
 8001df6:	681b      	ldr	r3, [r3, #0]
 8001df8:	681a      	ldr	r2, [r3, #0]
 8001dfa:	68fb      	ldr	r3, [r7, #12]
 8001dfc:	681b      	ldr	r3, [r3, #0]
 8001dfe:	4917      	ldr	r1, [pc, #92]	; (8001e5c <UART_WaitOnFlagUntilTimeout+0xf8>)
 8001e00:	400a      	ands	r2, r1
 8001e02:	601a      	str	r2, [r3, #0]
          CLEAR_BIT(huart->Instance->CR3, USART_CR3_EIE);
 8001e04:	68fb      	ldr	r3, [r7, #12]
 8001e06:	681b      	ldr	r3, [r3, #0]
 8001e08:	689a      	ldr	r2, [r3, #8]
 8001e0a:	68fb      	ldr	r3, [r7, #12]
 8001e0c:	681b      	ldr	r3, [r3, #0]
 8001e0e:	2101      	movs	r1, #1
 8001e10:	438a      	bics	r2, r1
 8001e12:	609a      	str	r2, [r3, #8]

          huart->gState = HAL_UART_STATE_READY;
 8001e14:	68fb      	ldr	r3, [r7, #12]
 8001e16:	2220      	movs	r2, #32
 8001e18:	679a      	str	r2, [r3, #120]	; 0x78
          huart->RxState = HAL_UART_STATE_READY;
 8001e1a:	68fb      	ldr	r3, [r7, #12]
 8001e1c:	2220      	movs	r2, #32
 8001e1e:	67da      	str	r2, [r3, #124]	; 0x7c
          huart->ErrorCode = HAL_UART_ERROR_RTO;
 8001e20:	68fb      	ldr	r3, [r7, #12]
 8001e22:	2280      	movs	r2, #128	; 0x80
 8001e24:	2120      	movs	r1, #32
 8001e26:	5099      	str	r1, [r3, r2]

          /* Process Unlocked */
          __HAL_UNLOCK(huart);
 8001e28:	68fb      	ldr	r3, [r7, #12]
 8001e2a:	2274      	movs	r2, #116	; 0x74
 8001e2c:	2100      	movs	r1, #0
 8001e2e:	5499      	strb	r1, [r3, r2]

          return HAL_TIMEOUT;
 8001e30:	2303      	movs	r3, #3
 8001e32:	e00f      	b.n	8001e54 <UART_WaitOnFlagUntilTimeout+0xf0>
  while ((__HAL_UART_GET_FLAG(huart, Flag) ? SET : RESET) == Status)
 8001e34:	68fb      	ldr	r3, [r7, #12]
 8001e36:	681b      	ldr	r3, [r3, #0]
 8001e38:	69db      	ldr	r3, [r3, #28]
 8001e3a:	68ba      	ldr	r2, [r7, #8]
 8001e3c:	4013      	ands	r3, r2
 8001e3e:	68ba      	ldr	r2, [r7, #8]
 8001e40:	1ad3      	subs	r3, r2, r3
 8001e42:	425a      	negs	r2, r3
 8001e44:	4153      	adcs	r3, r2
 8001e46:	b2db      	uxtb	r3, r3
 8001e48:	001a      	movs	r2, r3
 8001e4a:	1dfb      	adds	r3, r7, #7
 8001e4c:	781b      	ldrb	r3, [r3, #0]
 8001e4e:	429a      	cmp	r2, r3
 8001e50:	d091      	beq.n	8001d76 <UART_WaitOnFlagUntilTimeout+0x12>
        }
      }
    }
  }
  return HAL_OK;
 8001e52:	2300      	movs	r3, #0
}
 8001e54:	0018      	movs	r0, r3
 8001e56:	46bd      	mov	sp, r7
 8001e58:	b004      	add	sp, #16
 8001e5a:	bd80      	pop	{r7, pc}
 8001e5c:	fffffe5f 	.word	0xfffffe5f

08001e60 <timer14_init>:


static void oc_led_init(void);

void timer14_init(void)
{
 8001e60:	b580      	push	{r7, lr}
 8001e62:	b082      	sub	sp, #8
 8001e64:	af00      	add	r7, sp, #0
	//GPIO_InitTypeDef GPIO_InitStruct;
	oc_led_init();
 8001e66:	f000 f865 	bl	8001f34 <oc_led_init>
	__HAL_RCC_TIM14_CLK_ENABLE();
 8001e6a:	4b1f      	ldr	r3, [pc, #124]	; (8001ee8 <timer14_init+0x88>)
 8001e6c:	69da      	ldr	r2, [r3, #28]
 8001e6e:	4b1e      	ldr	r3, [pc, #120]	; (8001ee8 <timer14_init+0x88>)
 8001e70:	2180      	movs	r1, #128	; 0x80
 8001e72:	0049      	lsls	r1, r1, #1
 8001e74:	430a      	orrs	r2, r1
 8001e76:	61da      	str	r2, [r3, #28]
 8001e78:	4b1b      	ldr	r3, [pc, #108]	; (8001ee8 <timer14_init+0x88>)
 8001e7a:	69da      	ldr	r2, [r3, #28]
 8001e7c:	2380      	movs	r3, #128	; 0x80
 8001e7e:	005b      	lsls	r3, r3, #1
 8001e80:	4013      	ands	r3, r2
 8001e82:	607b      	str	r3, [r7, #4]
 8001e84:	687b      	ldr	r3, [r7, #4]
	GPIO_InitStruct.Alternate = GPIO_AF4_TIM14;

	HAL_GPIO_Init(GPIOA, &GPIO_InitStruct);
    */
	// Timer clock = 48 mhz / 48000 = 1000 Hz (1 ms period)
	TIM14->PSC = 48000 - 1;
 8001e86:	4b19      	ldr	r3, [pc, #100]	; (8001eec <timer14_init+0x8c>)
 8001e88:	4a19      	ldr	r2, [pc, #100]	; (8001ef0 <timer14_init+0x90>)
 8001e8a:	629a      	str	r2, [r3, #40]	; 0x28

	// OUTPUT COMPARE MODE
	TIM14->CCMR1 &= ~TIM_CCMR1_CC1S_0;
 8001e8c:	4b17      	ldr	r3, [pc, #92]	; (8001eec <timer14_init+0x8c>)
 8001e8e:	699a      	ldr	r2, [r3, #24]
 8001e90:	4b16      	ldr	r3, [pc, #88]	; (8001eec <timer14_init+0x8c>)
 8001e92:	2101      	movs	r1, #1
 8001e94:	438a      	bics	r2, r1
 8001e96:	619a      	str	r2, [r3, #24]
	TIM14->CCMR1 &= ~TIM_CCMR1_CC1S_1;
 8001e98:	4b14      	ldr	r3, [pc, #80]	; (8001eec <timer14_init+0x8c>)
 8001e9a:	699a      	ldr	r2, [r3, #24]
 8001e9c:	4b13      	ldr	r3, [pc, #76]	; (8001eec <timer14_init+0x8c>)
 8001e9e:	2102      	movs	r1, #2
 8001ea0:	438a      	bics	r2, r1
 8001ea2:	619a      	str	r2, [r3, #24]

	//OUTPUT COMPARE MODE - TOGGLE ON MATCH
	TIM14->CCMR1 |= TIM_CCMR1_OC1M_0;
 8001ea4:	4b11      	ldr	r3, [pc, #68]	; (8001eec <timer14_init+0x8c>)
 8001ea6:	699a      	ldr	r2, [r3, #24]
 8001ea8:	4b10      	ldr	r3, [pc, #64]	; (8001eec <timer14_init+0x8c>)
 8001eaa:	2110      	movs	r1, #16
 8001eac:	430a      	orrs	r2, r1
 8001eae:	619a      	str	r2, [r3, #24]
	TIM14->CCMR1 |= TIM_CCMR1_OC1M_1;
 8001eb0:	4b0e      	ldr	r3, [pc, #56]	; (8001eec <timer14_init+0x8c>)
 8001eb2:	699a      	ldr	r2, [r3, #24]
 8001eb4:	4b0d      	ldr	r3, [pc, #52]	; (8001eec <timer14_init+0x8c>)
 8001eb6:	2120      	movs	r1, #32
 8001eb8:	430a      	orrs	r2, r1
 8001eba:	619a      	str	r2, [r3, #24]
	TIM14->CCMR1 &= ~TIM_CCMR1_OC1M_2;
 8001ebc:	4b0b      	ldr	r3, [pc, #44]	; (8001eec <timer14_init+0x8c>)
 8001ebe:	699a      	ldr	r2, [r3, #24]
 8001ec0:	4b0a      	ldr	r3, [pc, #40]	; (8001eec <timer14_init+0x8c>)
 8001ec2:	2140      	movs	r1, #64	; 0x40
 8001ec4:	438a      	bics	r2, r1
 8001ec6:	619a      	str	r2, [r3, #24]

	// Enable OC1REF OUTPUT
	TIM14->CCER |= TIM_CCER_CC1E;
 8001ec8:	4b08      	ldr	r3, [pc, #32]	; (8001eec <timer14_init+0x8c>)
 8001eca:	6a1a      	ldr	r2, [r3, #32]
 8001ecc:	4b07      	ldr	r3, [pc, #28]	; (8001eec <timer14_init+0x8c>)
 8001ece:	2101      	movs	r1, #1
 8001ed0:	430a      	orrs	r2, r1
 8001ed2:	621a      	str	r2, [r3, #32]
	
	// Set period to 100 ms
	TIM14->ARR = 99;
 8001ed4:	4b05      	ldr	r3, [pc, #20]	; (8001eec <timer14_init+0x8c>)
 8001ed6:	2263      	movs	r2, #99	; 0x63
 8001ed8:	62da      	str	r2, [r3, #44]	; 0x2c
	TIM14->CCR1 = 99;
 8001eda:	4b04      	ldr	r3, [pc, #16]	; (8001eec <timer14_init+0x8c>)
 8001edc:	2263      	movs	r2, #99	; 0x63
 8001ede:	635a      	str	r2, [r3, #52]	; 0x34
}
 8001ee0:	46c0      	nop			; (mov r8, r8)
 8001ee2:	46bd      	mov	sp, r7
 8001ee4:	b002      	add	sp, #8
 8001ee6:	bd80      	pop	{r7, pc}
 8001ee8:	40021000 	.word	0x40021000
 8001eec:	40002000 	.word	0x40002000
 8001ef0:	0000bb7f 	.word	0x0000bb7f

08001ef4 <timer14_enable>:

void timer14_enable(void)
{
 8001ef4:	b580      	push	{r7, lr}
 8001ef6:	af00      	add	r7, sp, #0
	TIM14->CR1 |= TIM_CR1_CEN;
 8001ef8:	4b04      	ldr	r3, [pc, #16]	; (8001f0c <timer14_enable+0x18>)
 8001efa:	681a      	ldr	r2, [r3, #0]
 8001efc:	4b03      	ldr	r3, [pc, #12]	; (8001f0c <timer14_enable+0x18>)
 8001efe:	2101      	movs	r1, #1
 8001f00:	430a      	orrs	r2, r1
 8001f02:	601a      	str	r2, [r3, #0]
}
 8001f04:	46c0      	nop			; (mov r8, r8)
 8001f06:	46bd      	mov	sp, r7
 8001f08:	bd80      	pop	{r7, pc}
 8001f0a:	46c0      	nop			; (mov r8, r8)
 8001f0c:	40002000 	.word	0x40002000

08001f10 <timer14_capture_set_period>:
{
	TIM14->CR1 &= ~TIM_CR1_CEN;
}

void timer14_capture_set_period(uint32_t ms)
{
 8001f10:	b580      	push	{r7, lr}
 8001f12:	b082      	sub	sp, #8
 8001f14:	af00      	add	r7, sp, #0
 8001f16:	6078      	str	r0, [r7, #4]
	TIM14->ARR = ms-1;
 8001f18:	4b05      	ldr	r3, [pc, #20]	; (8001f30 <timer14_capture_set_period+0x20>)
 8001f1a:	687a      	ldr	r2, [r7, #4]
 8001f1c:	3a01      	subs	r2, #1
 8001f1e:	62da      	str	r2, [r3, #44]	; 0x2c
	TIM14->CCR1 = ms-1;
 8001f20:	4b03      	ldr	r3, [pc, #12]	; (8001f30 <timer14_capture_set_period+0x20>)
 8001f22:	687a      	ldr	r2, [r7, #4]
 8001f24:	3a01      	subs	r2, #1
 8001f26:	635a      	str	r2, [r3, #52]	; 0x34
}
 8001f28:	46c0      	nop			; (mov r8, r8)
 8001f2a:	46bd      	mov	sp, r7
 8001f2c:	b002      	add	sp, #8
 8001f2e:	bd80      	pop	{r7, pc}
 8001f30:	40002000 	.word	0x40002000

08001f34 <oc_led_init>:

void oc_led_init()
{
 8001f34:	b580      	push	{r7, lr}
 8001f36:	b082      	sub	sp, #8
 8001f38:	af00      	add	r7, sp, #0
	//OC Output ==>  GPIOA-7 (AF4)

	// Enable Clock
	__HAL_RCC_GPIOA_CLK_ENABLE();
 8001f3a:	4b36      	ldr	r3, [pc, #216]	; (8002014 <oc_led_init+0xe0>)
 8001f3c:	695a      	ldr	r2, [r3, #20]
 8001f3e:	4b35      	ldr	r3, [pc, #212]	; (8002014 <oc_led_init+0xe0>)
 8001f40:	2180      	movs	r1, #128	; 0x80
 8001f42:	0289      	lsls	r1, r1, #10
 8001f44:	430a      	orrs	r2, r1
 8001f46:	615a      	str	r2, [r3, #20]
 8001f48:	4b32      	ldr	r3, [pc, #200]	; (8002014 <oc_led_init+0xe0>)
 8001f4a:	695a      	ldr	r2, [r3, #20]
 8001f4c:	2380      	movs	r3, #128	; 0x80
 8001f4e:	029b      	lsls	r3, r3, #10
 8001f50:	4013      	ands	r3, r2
 8001f52:	607b      	str	r3, [r7, #4]
 8001f54:	687b      	ldr	r3, [r7, #4]

	// Select Mode : Alternate Function
	// BIT 14: 0
	// BIT 15: 1
	GPIOA->MODER   &= ~(1 << 14); // Bit 14 : 0
 8001f56:	2390      	movs	r3, #144	; 0x90
 8001f58:	05db      	lsls	r3, r3, #23
 8001f5a:	681a      	ldr	r2, [r3, #0]
 8001f5c:	2390      	movs	r3, #144	; 0x90
 8001f5e:	05db      	lsls	r3, r3, #23
 8001f60:	492d      	ldr	r1, [pc, #180]	; (8002018 <oc_led_init+0xe4>)
 8001f62:	400a      	ands	r2, r1
 8001f64:	601a      	str	r2, [r3, #0]
	GPIOA->MODER   |=  (1 << 15); // Bit 15 : 1
 8001f66:	2390      	movs	r3, #144	; 0x90
 8001f68:	05db      	lsls	r3, r3, #23
 8001f6a:	681a      	ldr	r2, [r3, #0]
 8001f6c:	2390      	movs	r3, #144	; 0x90
 8001f6e:	05db      	lsls	r3, r3, #23
 8001f70:	2180      	movs	r1, #128	; 0x80
 8001f72:	0209      	lsls	r1, r1, #8
 8001f74:	430a      	orrs	r2, r1
 8001f76:	601a      	str	r2, [r3, #0]

	// Select Output Type
	// Bit 7 : 0
	GPIOA->OTYPER  &= ~(1<<7); // 0 - Push - pull output
 8001f78:	2390      	movs	r3, #144	; 0x90
 8001f7a:	05db      	lsls	r3, r3, #23
 8001f7c:	685a      	ldr	r2, [r3, #4]
 8001f7e:	2390      	movs	r3, #144	; 0x90
 8001f80:	05db      	lsls	r3, r3, #23
 8001f82:	2180      	movs	r1, #128	; 0x80
 8001f84:	438a      	bics	r2, r1
 8001f86:	605a      	str	r2, [r3, #4]

	// Select Speed :  Medium
	// Bit 14: 1
	// Bit 15: 0
	GPIOA->OSPEEDR |=  (1 << 14); // Bit 14: 1
 8001f88:	2390      	movs	r3, #144	; 0x90
 8001f8a:	05db      	lsls	r3, r3, #23
 8001f8c:	689a      	ldr	r2, [r3, #8]
 8001f8e:	2390      	movs	r3, #144	; 0x90
 8001f90:	05db      	lsls	r3, r3, #23
 8001f92:	2180      	movs	r1, #128	; 0x80
 8001f94:	01c9      	lsls	r1, r1, #7
 8001f96:	430a      	orrs	r2, r1
 8001f98:	609a      	str	r2, [r3, #8]
	GPIOA->OSPEEDR &= ~(1 << 15); // Bit 15: 0
 8001f9a:	2390      	movs	r3, #144	; 0x90
 8001f9c:	05db      	lsls	r3, r3, #23
 8001f9e:	689a      	ldr	r2, [r3, #8]
 8001fa0:	2390      	movs	r3, #144	; 0x90
 8001fa2:	05db      	lsls	r3, r3, #23
 8001fa4:	491d      	ldr	r1, [pc, #116]	; (800201c <oc_led_init+0xe8>)
 8001fa6:	400a      	ands	r2, r1
 8001fa8:	609a      	str	r2, [r3, #8]


	// No pull-up, no pull-down
	// Bit 14 : 0
	// Bit 15 :	0
	GPIOA->PUPDR   &= ~(1 << 14);
 8001faa:	2390      	movs	r3, #144	; 0x90
 8001fac:	05db      	lsls	r3, r3, #23
 8001fae:	68da      	ldr	r2, [r3, #12]
 8001fb0:	2390      	movs	r3, #144	; 0x90
 8001fb2:	05db      	lsls	r3, r3, #23
 8001fb4:	4918      	ldr	r1, [pc, #96]	; (8002018 <oc_led_init+0xe4>)
 8001fb6:	400a      	ands	r2, r1
 8001fb8:	60da      	str	r2, [r3, #12]
	GPIOA->PUPDR   &= ~(1 << 15);
 8001fba:	2390      	movs	r3, #144	; 0x90
 8001fbc:	05db      	lsls	r3, r3, #23
 8001fbe:	68da      	ldr	r2, [r3, #12]
 8001fc0:	2390      	movs	r3, #144	; 0x90
 8001fc2:	05db      	lsls	r3, r3, #23
 8001fc4:	4915      	ldr	r1, [pc, #84]	; (800201c <oc_led_init+0xe8>)
 8001fc6:	400a      	ands	r2, r1
 8001fc8:	60da      	str	r2, [r3, #12]
	// Alternate Function: AFRL_LOW
	// Bit 28 : 0
	// Bit 29 :	0
	// Bit 30 : 1
	// Bit 31 :	0
	GPIOA->AFR[0] &= ~ (1 << 28);
 8001fca:	2390      	movs	r3, #144	; 0x90
 8001fcc:	05db      	lsls	r3, r3, #23
 8001fce:	6a1a      	ldr	r2, [r3, #32]
 8001fd0:	2390      	movs	r3, #144	; 0x90
 8001fd2:	05db      	lsls	r3, r3, #23
 8001fd4:	4912      	ldr	r1, [pc, #72]	; (8002020 <oc_led_init+0xec>)
 8001fd6:	400a      	ands	r2, r1
 8001fd8:	621a      	str	r2, [r3, #32]
	GPIOA->AFR[0] &= ~ (1 << 29);
 8001fda:	2390      	movs	r3, #144	; 0x90
 8001fdc:	05db      	lsls	r3, r3, #23
 8001fde:	6a1a      	ldr	r2, [r3, #32]
 8001fe0:	2390      	movs	r3, #144	; 0x90
 8001fe2:	05db      	lsls	r3, r3, #23
 8001fe4:	490f      	ldr	r1, [pc, #60]	; (8002024 <oc_led_init+0xf0>)
 8001fe6:	400a      	ands	r2, r1
 8001fe8:	621a      	str	r2, [r3, #32]
	GPIOA->AFR[0] |= (1 << 30);
 8001fea:	2390      	movs	r3, #144	; 0x90
 8001fec:	05db      	lsls	r3, r3, #23
 8001fee:	6a1a      	ldr	r2, [r3, #32]
 8001ff0:	2390      	movs	r3, #144	; 0x90
 8001ff2:	05db      	lsls	r3, r3, #23
 8001ff4:	2180      	movs	r1, #128	; 0x80
 8001ff6:	05c9      	lsls	r1, r1, #23
 8001ff8:	430a      	orrs	r2, r1
 8001ffa:	621a      	str	r2, [r3, #32]
	GPIOA->AFR[0] &= ~ (1 << 31);
 8001ffc:	2390      	movs	r3, #144	; 0x90
 8001ffe:	05db      	lsls	r3, r3, #23
 8002000:	6a1a      	ldr	r2, [r3, #32]
 8002002:	2390      	movs	r3, #144	; 0x90
 8002004:	05db      	lsls	r3, r3, #23
 8002006:	0052      	lsls	r2, r2, #1
 8002008:	0852      	lsrs	r2, r2, #1
 800200a:	621a      	str	r2, [r3, #32]
}
 800200c:	46c0      	nop			; (mov r8, r8)
 800200e:	46bd      	mov	sp, r7
 8002010:	b002      	add	sp, #8
 8002012:	bd80      	pop	{r7, pc}
 8002014:	40021000 	.word	0x40021000
 8002018:	ffffbfff 	.word	0xffffbfff
 800201c:	ffff7fff 	.word	0xffff7fff
 8002020:	efffffff 	.word	0xefffffff
 8002024:	dfffffff 	.word	0xdfffffff

08002028 <TIM6_IRQHandler>:
	TIM6->CR1 &= ~(TIM_CR1_CEN);	
}

// Timer6 Interrupt Request Handler
void TIM6_IRQHandler(void)
{
 8002028:	b580      	push	{r7, lr}
 800202a:	af00      	add	r7, sp, #0
	TIM6->SR &=~(TIM_SR_UIF);
 800202c:	4b08      	ldr	r3, [pc, #32]	; (8002050 <TIM6_IRQHandler+0x28>)
 800202e:	691a      	ldr	r2, [r3, #16]
 8002030:	4b07      	ldr	r3, [pc, #28]	; (8002050 <TIM6_IRQHandler+0x28>)
 8002032:	2101      	movs	r1, #1
 8002034:	438a      	bics	r2, r1
 8002036:	611a      	str	r2, [r3, #16]
	
	GPIOA->ODR ^= GPIO_PIN_5;
 8002038:	2390      	movs	r3, #144	; 0x90
 800203a:	05db      	lsls	r3, r3, #23
 800203c:	695a      	ldr	r2, [r3, #20]
 800203e:	2390      	movs	r3, #144	; 0x90
 8002040:	05db      	lsls	r3, r3, #23
 8002042:	2120      	movs	r1, #32
 8002044:	404a      	eors	r2, r1
 8002046:	615a      	str	r2, [r3, #20]
}
 8002048:	46c0      	nop			; (mov r8, r8)
 800204a:	46bd      	mov	sp, r7
 800204c:	bd80      	pop	{r7, pc}
 800204e:	46c0      	nop			; (mov r8, r8)
 8002050:	40001000 	.word	0x40001000

08002054 <UART_Init>:
  ayarlarla baslatir. 
  RX kesmelerini aktif hale getirir.

*/
void UART_Init()
{
 8002054:	b590      	push	{r4, r7, lr}
 8002056:	b089      	sub	sp, #36	; 0x24
 8002058:	af00      	add	r7, sp, #0
	
GPIO_InitTypeDef  GPIO_InitStruct;
  
  /*##-1- Enable peripherals and GPIO Clocks #################################*/
  /* Enable GPIO TX/RX clock */  
	__HAL_RCC_GPIOA_CLK_ENABLE();
 800205a:	4b42      	ldr	r3, [pc, #264]	; (8002164 <UART_Init+0x110>)
 800205c:	695a      	ldr	r2, [r3, #20]
 800205e:	4b41      	ldr	r3, [pc, #260]	; (8002164 <UART_Init+0x110>)
 8002060:	2180      	movs	r1, #128	; 0x80
 8002062:	0289      	lsls	r1, r1, #10
 8002064:	430a      	orrs	r2, r1
 8002066:	615a      	str	r2, [r3, #20]
 8002068:	4b3e      	ldr	r3, [pc, #248]	; (8002164 <UART_Init+0x110>)
 800206a:	695a      	ldr	r2, [r3, #20]
 800206c:	2380      	movs	r3, #128	; 0x80
 800206e:	029b      	lsls	r3, r3, #10
 8002070:	4013      	ands	r3, r2
 8002072:	60bb      	str	r3, [r7, #8]
 8002074:	68bb      	ldr	r3, [r7, #8]

  /* Enable USARTx clock */
  __HAL_RCC_USART2_CLK_ENABLE(); 
 8002076:	4b3b      	ldr	r3, [pc, #236]	; (8002164 <UART_Init+0x110>)
 8002078:	69da      	ldr	r2, [r3, #28]
 800207a:	4b3a      	ldr	r3, [pc, #232]	; (8002164 <UART_Init+0x110>)
 800207c:	2180      	movs	r1, #128	; 0x80
 800207e:	0289      	lsls	r1, r1, #10
 8002080:	430a      	orrs	r2, r1
 8002082:	61da      	str	r2, [r3, #28]
 8002084:	4b37      	ldr	r3, [pc, #220]	; (8002164 <UART_Init+0x110>)
 8002086:	69da      	ldr	r2, [r3, #28]
 8002088:	2380      	movs	r3, #128	; 0x80
 800208a:	029b      	lsls	r3, r3, #10
 800208c:	4013      	ands	r3, r2
 800208e:	607b      	str	r3, [r7, #4]
 8002090:	687b      	ldr	r3, [r7, #4]
  
  /*##-2- Configure peripheral GPIO ##########################################*/  
  /* UART TX GPIO pin configuration  */
	
	
  GPIO_InitStruct.Pin       = GPIO_PIN_2;
 8002092:	240c      	movs	r4, #12
 8002094:	193b      	adds	r3, r7, r4
 8002096:	2204      	movs	r2, #4
 8002098:	601a      	str	r2, [r3, #0]
  GPIO_InitStruct.Mode      = GPIO_MODE_AF_PP;
 800209a:	193b      	adds	r3, r7, r4
 800209c:	2202      	movs	r2, #2
 800209e:	605a      	str	r2, [r3, #4]
  GPIO_InitStruct.Pull      = GPIO_PULLUP;
 80020a0:	193b      	adds	r3, r7, r4
 80020a2:	2201      	movs	r2, #1
 80020a4:	609a      	str	r2, [r3, #8]
  GPIO_InitStruct.Speed     = GPIO_SPEED_FREQ_HIGH;
 80020a6:	193b      	adds	r3, r7, r4
 80020a8:	2203      	movs	r2, #3
 80020aa:	60da      	str	r2, [r3, #12]
  GPIO_InitStruct.Alternate = GPIO_AF1_USART2;
 80020ac:	193b      	adds	r3, r7, r4
 80020ae:	2201      	movs	r2, #1
 80020b0:	611a      	str	r2, [r3, #16]
  
  HAL_GPIO_Init(GPIOA, &GPIO_InitStruct);
 80020b2:	193a      	adds	r2, r7, r4
 80020b4:	2390      	movs	r3, #144	; 0x90
 80020b6:	05db      	lsls	r3, r3, #23
 80020b8:	0011      	movs	r1, r2
 80020ba:	0018      	movs	r0, r3
 80020bc:	f7fe fbc4 	bl	8000848 <HAL_GPIO_Init>
    
  /* UART RX GPIO pin configuration  */
  GPIO_InitStruct.Pin = GPIO_PIN_3;
 80020c0:	0021      	movs	r1, r4
 80020c2:	187b      	adds	r3, r7, r1
 80020c4:	2208      	movs	r2, #8
 80020c6:	601a      	str	r2, [r3, #0]
	
  GPIO_InitStruct.Mode      = GPIO_MODE_AF_PP;
 80020c8:	187b      	adds	r3, r7, r1
 80020ca:	2202      	movs	r2, #2
 80020cc:	605a      	str	r2, [r3, #4]
  GPIO_InitStruct.Pull      = GPIO_PULLUP;
 80020ce:	187b      	adds	r3, r7, r1
 80020d0:	2201      	movs	r2, #1
 80020d2:	609a      	str	r2, [r3, #8]
  GPIO_InitStruct.Speed     = GPIO_SPEED_FREQ_HIGH;
 80020d4:	187b      	adds	r3, r7, r1
 80020d6:	2203      	movs	r2, #3
 80020d8:	60da      	str	r2, [r3, #12]
  GPIO_InitStruct.Alternate = GPIO_AF1_USART2;
 80020da:	187b      	adds	r3, r7, r1
 80020dc:	2201      	movs	r2, #1
 80020de:	611a      	str	r2, [r3, #16]
  HAL_GPIO_Init(GPIOA, &GPIO_InitStruct);
 80020e0:	187a      	adds	r2, r7, r1
 80020e2:	2390      	movs	r3, #144	; 0x90
 80020e4:	05db      	lsls	r3, r3, #23
 80020e6:	0011      	movs	r1, r2
 80020e8:	0018      	movs	r0, r3
 80020ea:	f7fe fbad 	bl	8000848 <HAL_GPIO_Init>
      - Word Length = 8 Bits
      - Stop Bit = One Stop bit
      - Parity = None
      - BaudRate = 9600 baud
      - Hardware flow control disabled (RTS and CTS signals) */
  UartHandle.Instance        = USART2;
 80020ee:	4b1e      	ldr	r3, [pc, #120]	; (8002168 <UART_Init+0x114>)
 80020f0:	4a1e      	ldr	r2, [pc, #120]	; (800216c <UART_Init+0x118>)
 80020f2:	601a      	str	r2, [r3, #0]
	
  UartHandle.Init.BaudRate   = 9600;
 80020f4:	4b1c      	ldr	r3, [pc, #112]	; (8002168 <UART_Init+0x114>)
 80020f6:	2296      	movs	r2, #150	; 0x96
 80020f8:	0192      	lsls	r2, r2, #6
 80020fa:	605a      	str	r2, [r3, #4]
  UartHandle.Init.WordLength = UART_WORDLENGTH_8B;
 80020fc:	4b1a      	ldr	r3, [pc, #104]	; (8002168 <UART_Init+0x114>)
 80020fe:	2200      	movs	r2, #0
 8002100:	609a      	str	r2, [r3, #8]
  UartHandle.Init.StopBits   = UART_STOPBITS_1;
 8002102:	4b19      	ldr	r3, [pc, #100]	; (8002168 <UART_Init+0x114>)
 8002104:	2200      	movs	r2, #0
 8002106:	60da      	str	r2, [r3, #12]
  UartHandle.Init.Parity     = UART_PARITY_NONE;
 8002108:	4b17      	ldr	r3, [pc, #92]	; (8002168 <UART_Init+0x114>)
 800210a:	2200      	movs	r2, #0
 800210c:	611a      	str	r2, [r3, #16]
  UartHandle.Init.HwFlowCtl  = UART_HWCONTROL_NONE;
 800210e:	4b16      	ldr	r3, [pc, #88]	; (8002168 <UART_Init+0x114>)
 8002110:	2200      	movs	r2, #0
 8002112:	619a      	str	r2, [r3, #24]
  UartHandle.Init.Mode       = UART_MODE_TX_RX;
 8002114:	4b14      	ldr	r3, [pc, #80]	; (8002168 <UART_Init+0x114>)
 8002116:	220c      	movs	r2, #12
 8002118:	615a      	str	r2, [r3, #20]
  UartHandle.AdvancedInit.AdvFeatureInit = UART_ADVFEATURE_NO_INIT; 
 800211a:	4b13      	ldr	r3, [pc, #76]	; (8002168 <UART_Init+0x114>)
 800211c:	2200      	movs	r2, #0
 800211e:	625a      	str	r2, [r3, #36]	; 0x24
	
  if(HAL_UART_DeInit(&UartHandle) != HAL_OK)
 8002120:	4b11      	ldr	r3, [pc, #68]	; (8002168 <UART_Init+0x114>)
 8002122:	0018      	movs	r0, r3
 8002124:	f7ff fb90 	bl	8001848 <HAL_UART_DeInit>
 8002128:	1e03      	subs	r3, r0, #0
 800212a:	d001      	beq.n	8002130 <UART_Init+0xdc>
  {
    //ERROR
		UART_Error_Handler();
 800212c:	f000 f820 	bl	8002170 <UART_Error_Handler>
  }  
	
  if(HAL_UART_Init(&UartHandle) != HAL_OK)
 8002130:	4b0d      	ldr	r3, [pc, #52]	; (8002168 <UART_Init+0x114>)
 8002132:	0018      	movs	r0, r3
 8002134:	f7ff fb34 	bl	80017a0 <HAL_UART_Init>
 8002138:	1e03      	subs	r3, r0, #0
 800213a:	d001      	beq.n	8002140 <UART_Init+0xec>
  {
		//ERROR
    UART_Error_Handler();
 800213c:	f000 f818 	bl	8002170 <UART_Error_Handler>
  }
	
/* 4- Enable UART Receive Data Register Not Empty */
   SET_BIT(USART2->CR1, USART_CR1_RXNEIE);
 8002140:	4b0a      	ldr	r3, [pc, #40]	; (800216c <UART_Init+0x118>)
 8002142:	681a      	ldr	r2, [r3, #0]
 8002144:	4b09      	ldr	r3, [pc, #36]	; (800216c <UART_Init+0x118>)
 8002146:	2120      	movs	r1, #32
 8002148:	430a      	orrs	r2, r1
 800214a:	601a      	str	r2, [r3, #0]

	
	/* 5 - Enable UART Interrupt in NVIC */
	
  HAL_NVIC_SetPriority(USART2_IRQn, 0, 1);
 800214c:	2201      	movs	r2, #1
 800214e:	2100      	movs	r1, #0
 8002150:	201c      	movs	r0, #28
 8002152:	f7fe fb47 	bl	80007e4 <HAL_NVIC_SetPriority>
  HAL_NVIC_EnableIRQ(USART2_IRQn);
 8002156:	201c      	movs	r0, #28
 8002158:	f7fe fb59 	bl	800080e <HAL_NVIC_EnableIRQ>
}
 800215c:	46c0      	nop			; (mov r8, r8)
 800215e:	46bd      	mov	sp, r7
 8002160:	b009      	add	sp, #36	; 0x24
 8002162:	bd90      	pop	{r4, r7, pc}
 8002164:	40021000 	.word	0x40021000
 8002168:	2000002c 	.word	0x2000002c
 800216c:	40004400 	.word	0x40004400

08002170 <UART_Error_Handler>:
  * @brief  This function is executed in case of error occurrence.
  * @param  None
  * @retval None
  */
static void UART_Error_Handler(void)
{
 8002170:	b580      	push	{r7, lr}
 8002172:	af00      	add	r7, sp, #0
     while(1)
 8002174:	e7fe      	b.n	8002174 <UART_Error_Handler+0x4>
	...

08002178 <USART2_IRQHandler>:
  * @retval None
  * @Note   This function is redefined in "main.h" and related to DMA 
  *         used for USART data transmission     
  */
void USART2_IRQHandler(void)
{  
 8002178:	b580      	push	{r7, lr}
 800217a:	b082      	sub	sp, #8
 800217c:	af00      	add	r7, sp, #0
  uint32_t isrflags = USART2->ISR;
 800217e:	4b33      	ldr	r3, [pc, #204]	; (800224c <USART2_IRQHandler+0xd4>)
 8002180:	69db      	ldr	r3, [r3, #28]
 8002182:	607b      	str	r3, [r7, #4]
  uint32_t control_reg1 = USART2->CR1;
 8002184:	4b31      	ldr	r3, [pc, #196]	; (800224c <USART2_IRQHandler+0xd4>)
 8002186:	681b      	ldr	r3, [r3, #0]
 8002188:	603b      	str	r3, [r7, #0]

  /* UART in mode Receiver */
  if(((isrflags & USART_ISR_RXNE) != RESET) && ((control_reg1 & USART_CR1_RXNEIE) != RESET))
 800218a:	687b      	ldr	r3, [r7, #4]
 800218c:	2220      	movs	r2, #32
 800218e:	4013      	ands	r3, r2
 8002190:	d024      	beq.n	80021dc <USART2_IRQHandler+0x64>
 8002192:	683b      	ldr	r3, [r7, #0]
 8002194:	2220      	movs	r2, #32
 8002196:	4013      	ands	r3, r2
 8002198:	d020      	beq.n	80021dc <USART2_IRQHandler+0x64>
  {
	  /* Read one byte from the receive data register */

	  UART_BufferRX.buffer[UART_BufferRX.head_pointer] = USART2->RDR;
 800219a:	4b2c      	ldr	r3, [pc, #176]	; (800224c <USART2_IRQHandler+0xd4>)
 800219c:	8c9b      	ldrh	r3, [r3, #36]	; 0x24
 800219e:	b299      	uxth	r1, r3
 80021a0:	4a2b      	ldr	r2, [pc, #172]	; (8002250 <USART2_IRQHandler+0xd8>)
 80021a2:	2380      	movs	r3, #128	; 0x80
 80021a4:	00db      	lsls	r3, r3, #3
 80021a6:	58d2      	ldr	r2, [r2, r3]
 80021a8:	4b29      	ldr	r3, [pc, #164]	; (8002250 <USART2_IRQHandler+0xd8>)
 80021aa:	0092      	lsls	r2, r2, #2
 80021ac:	50d1      	str	r1, [r2, r3]

	  UART_BufferRX.head_pointer = UART_BufferRX.head_pointer + 1;
 80021ae:	4a28      	ldr	r2, [pc, #160]	; (8002250 <USART2_IRQHandler+0xd8>)
 80021b0:	2380      	movs	r3, #128	; 0x80
 80021b2:	00db      	lsls	r3, r3, #3
 80021b4:	58d3      	ldr	r3, [r2, r3]
 80021b6:	1c59      	adds	r1, r3, #1
 80021b8:	4a25      	ldr	r2, [pc, #148]	; (8002250 <USART2_IRQHandler+0xd8>)
 80021ba:	2380      	movs	r3, #128	; 0x80
 80021bc:	00db      	lsls	r3, r3, #3
 80021be:	50d1      	str	r1, [r2, r3]

	  if(UART_BufferRX.head_pointer == BUFFER_SIZE)
 80021c0:	4a23      	ldr	r2, [pc, #140]	; (8002250 <USART2_IRQHandler+0xd8>)
 80021c2:	2380      	movs	r3, #128	; 0x80
 80021c4:	00db      	lsls	r3, r3, #3
 80021c6:	58d2      	ldr	r2, [r2, r3]
 80021c8:	2380      	movs	r3, #128	; 0x80
 80021ca:	005b      	lsls	r3, r3, #1
 80021cc:	429a      	cmp	r2, r3
 80021ce:	d137      	bne.n	8002240 <USART2_IRQHandler+0xc8>
	  {
		  UART_BufferRX.head_pointer = 0;
 80021d0:	4a1f      	ldr	r2, [pc, #124]	; (8002250 <USART2_IRQHandler+0xd8>)
 80021d2:	2380      	movs	r3, #128	; 0x80
 80021d4:	00db      	lsls	r3, r3, #3
 80021d6:	2100      	movs	r1, #0
 80021d8:	50d1      	str	r1, [r2, r3]
	  }

	  return;
 80021da:	e031      	b.n	8002240 <USART2_IRQHandler+0xc8>
  }


  /* UART in mode Transmitter */
  if(((isrflags & USART_ISR_TXE) != RESET) && ((control_reg1 & USART_CR1_TXEIE) != RESET))
 80021dc:	687b      	ldr	r3, [r7, #4]
 80021de:	2280      	movs	r2, #128	; 0x80
 80021e0:	4013      	ands	r3, r2
 80021e2:	d030      	beq.n	8002246 <USART2_IRQHandler+0xce>
 80021e4:	683b      	ldr	r3, [r7, #0]
 80021e6:	2280      	movs	r2, #128	; 0x80
 80021e8:	4013      	ands	r3, r2
 80021ea:	d02c      	beq.n	8002246 <USART2_IRQHandler+0xce>
  {    
		if(UART_BufferTX.head_pointer != UART_BufferTX.tail_pointer)
 80021ec:	4a19      	ldr	r2, [pc, #100]	; (8002254 <USART2_IRQHandler+0xdc>)
 80021ee:	2380      	movs	r3, #128	; 0x80
 80021f0:	00db      	lsls	r3, r3, #3
 80021f2:	58d2      	ldr	r2, [r2, r3]
 80021f4:	4b17      	ldr	r3, [pc, #92]	; (8002254 <USART2_IRQHandler+0xdc>)
 80021f6:	4918      	ldr	r1, [pc, #96]	; (8002258 <USART2_IRQHandler+0xe0>)
 80021f8:	585b      	ldr	r3, [r3, r1]
 80021fa:	429a      	cmp	r2, r3
 80021fc:	d018      	beq.n	8002230 <USART2_IRQHandler+0xb8>
		{
			// Send one byte from Transmit buffer
			USART2->TDR = UART_BufferTX.buffer[UART_BufferTX.tail_pointer++];
 80021fe:	4b15      	ldr	r3, [pc, #84]	; (8002254 <USART2_IRQHandler+0xdc>)
 8002200:	4a15      	ldr	r2, [pc, #84]	; (8002258 <USART2_IRQHandler+0xe0>)
 8002202:	589b      	ldr	r3, [r3, r2]
 8002204:	1c59      	adds	r1, r3, #1
 8002206:	4a13      	ldr	r2, [pc, #76]	; (8002254 <USART2_IRQHandler+0xdc>)
 8002208:	4813      	ldr	r0, [pc, #76]	; (8002258 <USART2_IRQHandler+0xe0>)
 800220a:	5011      	str	r1, [r2, r0]
 800220c:	4a11      	ldr	r2, [pc, #68]	; (8002254 <USART2_IRQHandler+0xdc>)
 800220e:	009b      	lsls	r3, r3, #2
 8002210:	589a      	ldr	r2, [r3, r2]
 8002212:	4b0e      	ldr	r3, [pc, #56]	; (800224c <USART2_IRQHandler+0xd4>)
 8002214:	b292      	uxth	r2, r2
 8002216:	851a      	strh	r2, [r3, #40]	; 0x28
			
			if(UART_BufferTX.tail_pointer == BUFFER_SIZE)
 8002218:	4b0e      	ldr	r3, [pc, #56]	; (8002254 <USART2_IRQHandler+0xdc>)
 800221a:	4a0f      	ldr	r2, [pc, #60]	; (8002258 <USART2_IRQHandler+0xe0>)
 800221c:	589a      	ldr	r2, [r3, r2]
 800221e:	2380      	movs	r3, #128	; 0x80
 8002220:	005b      	lsls	r3, r3, #1
 8002222:	429a      	cmp	r2, r3
 8002224:	d10e      	bne.n	8002244 <USART2_IRQHandler+0xcc>
			{
				UART_BufferTX.tail_pointer = 0;
 8002226:	4b0b      	ldr	r3, [pc, #44]	; (8002254 <USART2_IRQHandler+0xdc>)
 8002228:	4a0b      	ldr	r2, [pc, #44]	; (8002258 <USART2_IRQHandler+0xe0>)
 800222a:	2100      	movs	r1, #0
 800222c:	5099      	str	r1, [r3, r2]
		{
			/* Disable the UART Transmit Data Register Empty Interrupt */
			CLEAR_BIT(USART2->CR1, USART_CR1_TXEIE);
		}			
		
    return;
 800222e:	e009      	b.n	8002244 <USART2_IRQHandler+0xcc>
			CLEAR_BIT(USART2->CR1, USART_CR1_TXEIE);
 8002230:	4b06      	ldr	r3, [pc, #24]	; (800224c <USART2_IRQHandler+0xd4>)
 8002232:	681a      	ldr	r2, [r3, #0]
 8002234:	4b05      	ldr	r3, [pc, #20]	; (800224c <USART2_IRQHandler+0xd4>)
 8002236:	2180      	movs	r1, #128	; 0x80
 8002238:	438a      	bics	r2, r1
 800223a:	601a      	str	r2, [r3, #0]
    return;
 800223c:	46c0      	nop			; (mov r8, r8)
 800223e:	e001      	b.n	8002244 <USART2_IRQHandler+0xcc>
	  return;
 8002240:	46c0      	nop			; (mov r8, r8)
 8002242:	e000      	b.n	8002246 <USART2_IRQHandler+0xce>
    return;
 8002244:	46c0      	nop			; (mov r8, r8)
  }
}
 8002246:	46bd      	mov	sp, r7
 8002248:	b002      	add	sp, #8
 800224a:	bd80      	pop	{r7, pc}
 800224c:	40004400 	.word	0x40004400
 8002250:	200000b0 	.word	0x200000b0
 8002254:	200004b8 	.word	0x200004b8
 8002258:	00000404 	.word	0x00000404

0800225c <__libc_init_array>:
 800225c:	b570      	push	{r4, r5, r6, lr}
 800225e:	2600      	movs	r6, #0
 8002260:	4d0c      	ldr	r5, [pc, #48]	; (8002294 <__libc_init_array+0x38>)
 8002262:	4c0d      	ldr	r4, [pc, #52]	; (8002298 <__libc_init_array+0x3c>)
 8002264:	1b64      	subs	r4, r4, r5
 8002266:	10a4      	asrs	r4, r4, #2
 8002268:	42a6      	cmp	r6, r4
 800226a:	d109      	bne.n	8002280 <__libc_init_array+0x24>
 800226c:	2600      	movs	r6, #0
 800226e:	f000 f821 	bl	80022b4 <_init>
 8002272:	4d0a      	ldr	r5, [pc, #40]	; (800229c <__libc_init_array+0x40>)
 8002274:	4c0a      	ldr	r4, [pc, #40]	; (80022a0 <__libc_init_array+0x44>)
 8002276:	1b64      	subs	r4, r4, r5
 8002278:	10a4      	asrs	r4, r4, #2
 800227a:	42a6      	cmp	r6, r4
 800227c:	d105      	bne.n	800228a <__libc_init_array+0x2e>
 800227e:	bd70      	pop	{r4, r5, r6, pc}
 8002280:	00b3      	lsls	r3, r6, #2
 8002282:	58eb      	ldr	r3, [r5, r3]
 8002284:	4798      	blx	r3
 8002286:	3601      	adds	r6, #1
 8002288:	e7ee      	b.n	8002268 <__libc_init_array+0xc>
 800228a:	00b3      	lsls	r3, r6, #2
 800228c:	58eb      	ldr	r3, [r5, r3]
 800228e:	4798      	blx	r3
 8002290:	3601      	adds	r6, #1
 8002292:	e7f2      	b.n	800227a <__libc_init_array+0x1e>
 8002294:	08002304 	.word	0x08002304
 8002298:	08002304 	.word	0x08002304
 800229c:	08002304 	.word	0x08002304
 80022a0:	08002308 	.word	0x08002308

080022a4 <memset>:
 80022a4:	0003      	movs	r3, r0
 80022a6:	1812      	adds	r2, r2, r0
 80022a8:	4293      	cmp	r3, r2
 80022aa:	d100      	bne.n	80022ae <memset+0xa>
 80022ac:	4770      	bx	lr
 80022ae:	7019      	strb	r1, [r3, #0]
 80022b0:	3301      	adds	r3, #1
 80022b2:	e7f9      	b.n	80022a8 <memset+0x4>

080022b4 <_init>:
 80022b4:	b5f8      	push	{r3, r4, r5, r6, r7, lr}
 80022b6:	46c0      	nop			; (mov r8, r8)
 80022b8:	bcf8      	pop	{r3, r4, r5, r6, r7}
 80022ba:	bc08      	pop	{r3}
 80022bc:	469e      	mov	lr, r3
 80022be:	4770      	bx	lr

080022c0 <_fini>:
 80022c0:	b5f8      	push	{r3, r4, r5, r6, r7, lr}
 80022c2:	46c0      	nop			; (mov r8, r8)
 80022c4:	bcf8      	pop	{r3, r4, r5, r6, r7}
 80022c6:	bc08      	pop	{r3}
 80022c8:	469e      	mov	lr, r3
 80022ca:	4770      	bx	lr
